
7:	file format ELF64-x86-64

Disassembly of section .interp:
.interp:
     238:	2f  <unknown>
     239:	6c 	insb	%dx, %es:(%rdi)
     23a:	69 62 36 34 2f 6c 64 	imull	$1684811572, 54(%rdx), %esp
     241:	2d 6c 69 6e 75 	subl	$1970170220, %eax
     246:	78 2d 	js	45 <x.c+0x275>
     248:	78 38 	js	56 <x.c+0x282>
     24a:	36 2d 36 34 2e 73 	subl	$1932407862, %eax
     250:	6f 	outsl	(%rsi), %dx
     251:	2e 32 00 	xorb	%cs:(%rax), %al
Disassembly of section .note.ABI-tag:
.note.ABI-tag:
     254:	04 00 	addb	$0, %al
     256:	00 00 	addb	%al, (%rax)
     258:	10 00 	adcb	%al, (%rax)
     25a:	00 00 	addb	%al, (%rax)
     25c:	01 00 	addl	%eax, (%rax)
     25e:	00 00 	addb	%al, (%rax)
     260:	47 4e  <unknown>
     262:	55 	pushq	%rbp
     263:	00 00 	addb	%al, (%rax)
     265:	00 00 	addb	%al, (%rax)
     267:	00 03 	addb	%al, (%rbx)
     269:	00 00 	addb	%al, (%rax)
     26b:	00 02 	addb	%al, (%rdx)
     26d:	00 00 	addb	%al, (%rax)
     26f:	00 00 	addb	%al, (%rax)
     271:	00 00 	addb	%al, (%rax)
     273:	00  <unknown>
Disassembly of section .note.gnu.build-id:
.note.gnu.build-id:
     274:	04 00 	addb	$0, %al
     276:	00 00 	addb	%al, (%rax)
     278:	14 00 	adcb	$0, %al
     27a:	00 00 	addb	%al, (%rax)
     27c:	03 00 	addl	(%rax), %eax
     27e:	00 00 	addb	%al, (%rax)
     280:	47 4e  <unknown>
     282:	55 	pushq	%rbp
     283:	00 1d 9b 9b 04 43 	addb	%bl, 1124375451(%rip)
     289:	e8 d3 07 09 89 	callq	-1995896877 <_end+0xffffffff88e8fa49>
     28e:	04 64 	addb	$100, %al
     290:	d2 03 	rolb	%cl, (%rbx)
     292:	fa 	cli
     293:	48 7f b7 	jg	-73 <.interp+0x15>
     296:	19 ca 	sbbl	%ecx, %edx
Disassembly of section .gnu.hash:
.gnu.hash:
     298:	01 00 	addl	%eax, (%rax)
     29a:	00 00 	addb	%al, (%rax)
     29c:	01 00 	addl	%eax, (%rax)
     29e:	00 00 	addb	%al, (%rax)
     2a0:	01 00 	addl	%eax, (%rax)
     2a2:	00 00 	addb	%al, (%rax)
     2a4:	00 00 	addb	%al, (%rax)
     2a6:	00 00 	addb	%al, (%rax)
     2a8:	00 00 	addb	%al, (%rax)
     2aa:	00 00 	addb	%al, (%rax)
     2ac:	00 00 	addb	%al, (%rax)
     2ae:	00 00 	addb	%al, (%rax)
     2b0:	00 00 	addb	%al, (%rax)
     2b2:	00 00 	addb	%al, (%rax)
Disassembly of section .dynsym:
.dynsym:
     2b8:	00 00 	addb	%al, (%rax)
     2ba:	00 00 	addb	%al, (%rax)
     2bc:	00 00 	addb	%al, (%rax)
     2be:	00 00 	addb	%al, (%rax)
     2c0:	00 00 	addb	%al, (%rax)
     2c2:	00 00 	addb	%al, (%rax)
     2c4:	00 00 	addb	%al, (%rax)
     2c6:	00 00 	addb	%al, (%rax)
     2c8:	00 00 	addb	%al, (%rax)
     2ca:	00 00 	addb	%al, (%rax)
     2cc:	00 00 	addb	%al, (%rax)
     2ce:	00 00 	addb	%al, (%rax)
     2d0:	38 00 	cmpb	%al, (%rax)
     2d2:	00 00 	addb	%al, (%rax)
     2d4:	20 00 	andb	%al, (%rax)
     2d6:	00 00 	addb	%al, (%rax)
     2d8:	00 00 	addb	%al, (%rax)
     2da:	00 00 	addb	%al, (%rax)
     2dc:	00 00 	addb	%al, (%rax)
     2de:	00 00 	addb	%al, (%rax)
     2e0:	00 00 	addb	%al, (%rax)
     2e2:	00 00 	addb	%al, (%rax)
     2e4:	00 00 	addb	%al, (%rax)
     2e6:	00 00 	addb	%al, (%rax)
     2e8:	1a 00 	sbbb	(%rax), %al
     2ea:	00 00 	addb	%al, (%rax)
     2ec:	12 00 	adcb	(%rax), %al
     2ee:	00 00 	addb	%al, (%rax)
     2f0:	00 00 	addb	%al, (%rax)
     2f2:	00 00 	addb	%al, (%rax)
     2f4:	00 00 	addb	%al, (%rax)
     2f6:	00 00 	addb	%al, (%rax)
     2f8:	00 00 	addb	%al, (%rax)
     2fa:	00 00 	addb	%al, (%rax)
     2fc:	00 00 	addb	%al, (%rax)
     2fe:	00 00 	addb	%al, (%rax)
     300:	54 	pushq	%rsp
     301:	00 00 	addb	%al, (%rax)
     303:	00 20 	addb	%ah, (%rax)
     305:	00 00 	addb	%al, (%rax)
     307:	00 00 	addb	%al, (%rax)
     309:	00 00 	addb	%al, (%rax)
     30b:	00 00 	addb	%al, (%rax)
     30d:	00 00 	addb	%al, (%rax)
     30f:	00 00 	addb	%al, (%rax)
     311:	00 00 	addb	%al, (%rax)
     313:	00 00 	addb	%al, (%rax)
     315:	00 00 	addb	%al, (%rax)
     317:	00 63 00 	addb	%ah, (%rbx)
     31a:	00 00 	addb	%al, (%rax)
     31c:	20 00 	andb	%al, (%rax)
     31e:	00 00 	addb	%al, (%rax)
     320:	00 00 	addb	%al, (%rax)
     322:	00 00 	addb	%al, (%rax)
     324:	00 00 	addb	%al, (%rax)
     326:	00 00 	addb	%al, (%rax)
     328:	00 00 	addb	%al, (%rax)
     32a:	00 00 	addb	%al, (%rax)
     32c:	00 00 	addb	%al, (%rax)
     32e:	00 00 	addb	%al, (%rax)
     330:	0b 00 	orl	(%rax), %eax
     332:	00 00 	addb	%al, (%rax)
     334:	22 00 	andb	(%rax), %al
     336:	00 00 	addb	%al, (%rax)
     338:	00 00 	addb	%al, (%rax)
     33a:	00 00 	addb	%al, (%rax)
     33c:	00 00 	addb	%al, (%rax)
     33e:	00 00 	addb	%al, (%rax)
     340:	00 00 	addb	%al, (%rax)
     342:	00 00 	addb	%al, (%rax)
     344:	00 00 	addb	%al, (%rax)
     346:	00 00 	addb	%al, (%rax)
Disassembly of section .dynstr:
.dynstr:
     348:	00 6c 69 62 	addb	%ch, 98(%rcx,%rbp,2)
     34c:	63 2e 	movslq	(%rsi), %ebp
     34e:	73 6f 	jae	111 <.dynstr+0x77>
     350:	2e 36 00 5f 5f 	addb	%bl, %ss:95(%rdi)
     355:	63 78 61 	movslq	97(%rax), %edi
     358:	5f 	popq	%rdi
     359:	66 69 6e 61 6c 69 	imulw	$26988, 97(%rsi), %bp
     35f:	7a 65 	jp	101 <x.c+0x3c6>
     361:	00 5f 5f 	addb	%bl, 95(%rdi)
     364:	6c 	insb	%dx, %es:(%rdi)
     365:	69 62 63 5f 73 74 61 	imull	$1635021663, 99(%rdx), %esp
     36c:	72 74 	jb	116 <x.c+0x3e2>
     36e:	5f 	popq	%rdi
     36f:	6d 	insl	%dx, %es:(%rdi)
     370:	61  <unknown>
     371:	69 6e 00 47 4c 49 42 	imull	$1112099911, (%rsi), %ebp
     378:	43 5f 	popq	%r15
     37a:	32 2e 	xorb	(%rsi), %ch
     37c:	32 2e 	xorb	(%rsi), %ch
     37e:	35 00 5f 49 54 	xorl	$1414094592, %eax
     383:	4d 5f 	popq	%r15
     385:	64 65 72 65 	jb	101 <x.c+0x3ee>
     389:	67 69 73 74 65 72 54 4d 	imull	$1297379941, 116(%ebx), %esi
     391:	43 6c 	insb	%dx, %es:(%rdi)
     393:	6f 	outsl	(%rsi), %dx
     394:	6e 	outsb	(%rsi), %dx
     395:	65 54 	pushq	%rsp
     397:	61  <unknown>
     398:	62  <unknown>
     399:	6c 	insb	%dx, %es:(%rdi)
     39a:	65 00 5f 5f 	addb	%bl, %gs:95(%rdi)
     39e:	67 6d 	insl	%dx, %es:(%edi)
     3a0:	6f 	outsl	(%rsi), %dx
     3a1:	6e 	outsb	(%rsi), %dx
     3a2:	5f 	popq	%rdi
     3a3:	73 74 	jae	116 <x.c+0x419>
     3a5:	61  <unknown>
     3a6:	72 74 	jb	116 <x.c+0x41c>
     3a8:	5f 	popq	%rdi
     3a9:	5f 	popq	%rdi
     3aa:	00 5f 49 	addb	%bl, 73(%rdi)
     3ad:	54 	pushq	%rsp
     3ae:	4d 5f 	popq	%r15
     3b0:	72 65 	jb	101 <x.c+0x417>
     3b2:	67 69 73 74 65 72 54 4d 	imull	$1297379941, 116(%ebx), %esi
     3ba:	43 6c 	insb	%dx, %es:(%rdi)
     3bc:	6f 	outsl	(%rsi), %dx
     3bd:	6e 	outsb	(%rsi), %dx
     3be:	65 54 	pushq	%rsp
     3c0:	61  <unknown>
     3c1:	62  <unknown>
     3c2:	6c 	insb	%dx, %es:(%rdi)
     3c3:	65 00  <unknown>
Disassembly of section .gnu.version:
.gnu.version:
     3c6:	00 00 	addb	%al, (%rax)
     3c8:	00 00 	addb	%al, (%rax)
     3ca:	02 00 	addb	(%rax), %al
     3cc:	00 00 	addb	%al, (%rax)
     3ce:	00 00 	addb	%al, (%rax)
     3d0:	02 00 	addb	(%rax), %al
Disassembly of section .gnu.version_r:
.gnu.version_r:
     3d8:	01 00 	addl	%eax, (%rax)
     3da:	01 00 	addl	%eax, (%rax)
     3dc:	01 00 	addl	%eax, (%rax)
     3de:	00 00 	addb	%al, (%rax)
     3e0:	10 00 	adcb	%al, (%rax)
     3e2:	00 00 	addb	%al, (%rax)
     3e4:	00 00 	addb	%al, (%rax)
     3e6:	00 00 	addb	%al, (%rax)
     3e8:	75 1a 	jne	26 <x.c+0x404>
     3ea:	69 09 00 00 02 00 	imull	$131072, (%rcx), %ecx
     3f0:	2c 00 	subb	$0, %al
     3f2:	00 00 	addb	%al, (%rax)
     3f4:	00 00 	addb	%al, (%rax)
     3f6:	00 00 	addb	%al, (%rax)
Disassembly of section .rela.dyn:
.rela.dyn:
     3f8:	f0 	lock
     3f9:	0d 20 00 00 00 	orl	$32, %eax
     3fe:	00 00 	addb	%al, (%rax)
     400:	08 00 	orb	%al, (%rax)
     402:	00 00 	addb	%al, (%rax)
     404:	00 00 	addb	%al, (%rax)
     406:	00 00 	addb	%al, (%rax)
     408:	f0 	lock
     409:	05 00 00 00 00 	addl	$0, %eax
     40e:	00 00 	addb	%al, (%rax)
     410:	f8 	clc
     411:	0d 20 00 00 00 	orl	$32, %eax
     416:	00 00 	addb	%al, (%rax)
     418:	08 00 	orb	%al, (%rax)
     41a:	00 00 	addb	%al, (%rax)
     41c:	00 00 	addb	%al, (%rax)
     41e:	00 00 	addb	%al, (%rax)
     420:	b0 05 	movb	$5, %al
     422:	00 00 	addb	%al, (%rax)
     424:	00 00 	addb	%al, (%rax)
     426:	00 00 	addb	%al, (%rax)
     428:	08 10 	orb	%dl, (%rax)
     42a:	20 00 	andb	%al, (%rax)
     42c:	00 00 	addb	%al, (%rax)
     42e:	00 00 	addb	%al, (%rax)
     430:	08 00 	orb	%al, (%rax)
     432:	00 00 	addb	%al, (%rax)
     434:	00 00 	addb	%al, (%rax)
     436:	00 00 	addb	%al, (%rax)
     438:	08 10 	orb	%dl, (%rax)
     43a:	20 00 	andb	%al, (%rax)
     43c:	00 00 	addb	%al, (%rax)
     43e:	00 00 	addb	%al, (%rax)
     440:	d8 0f 	fmuls	(%rdi)
     442:	20 00 	andb	%al, (%rax)
     444:	00 00 	addb	%al, (%rax)
     446:	00 00 	addb	%al, (%rax)
     448:	06  <unknown>
     449:	00 00 	addb	%al, (%rax)
     44b:	00 01 	addb	%al, (%rcx)
     44d:	00 00 	addb	%al, (%rax)
     44f:	00 00 	addb	%al, (%rax)
     451:	00 00 	addb	%al, (%rax)
     453:	00 00 	addb	%al, (%rax)
     455:	00 00 	addb	%al, (%rax)
     457:	00 e0 	addb	%ah, %al
     459:	0f 20 00  <unknown>
     45c:	00 00 	addb	%al, (%rax)
     45e:	00 00 	addb	%al, (%rax)
     460:	06  <unknown>
     461:	00 00 	addb	%al, (%rax)
     463:	00 02 	addb	%al, (%rdx)
     465:	00 00 	addb	%al, (%rax)
     467:	00 00 	addb	%al, (%rax)
     469:	00 00 	addb	%al, (%rax)
     46b:	00 00 	addb	%al, (%rax)
     46d:	00 00 	addb	%al, (%rax)
     46f:	00 e8 	addb	%ch, %al
     471:	0f 20 00  <unknown>
     474:	00 00 	addb	%al, (%rax)
     476:	00 00 	addb	%al, (%rax)
     478:	06  <unknown>
     479:	00 00 	addb	%al, (%rax)
     47b:	00 03 	addb	%al, (%rbx)
     47d:	00 00 	addb	%al, (%rax)
     47f:	00 00 	addb	%al, (%rax)
     481:	00 00 	addb	%al, (%rax)
     483:	00 00 	addb	%al, (%rax)
     485:	00 00 	addb	%al, (%rax)
     487:	00 f0 	addb	%dh, %al
     489:	0f 20 00  <unknown>
     48c:	00 00 	addb	%al, (%rax)
     48e:	00 00 	addb	%al, (%rax)
     490:	06  <unknown>
     491:	00 00 	addb	%al, (%rax)
     493:	00 04 00 	addb	%al, (%rax,%rax)
     496:	00 00 	addb	%al, (%rax)
     498:	00 00 	addb	%al, (%rax)
     49a:	00 00 	addb	%al, (%rax)
     49c:	00 00 	addb	%al, (%rax)
     49e:	00 00 	addb	%al, (%rax)
     4a0:	f8 	clc
     4a1:	0f 20 00  <unknown>
     4a4:	00 00 	addb	%al, (%rax)
     4a6:	00 00 	addb	%al, (%rax)
     4a8:	06  <unknown>
     4a9:	00 00 	addb	%al, (%rax)
     4ab:	00 05 00 00 00 00 	addb	%al, (%rip)
     4b1:	00 00 	addb	%al, (%rax)
     4b3:	00 00 	addb	%al, (%rax)
     4b5:	00 00 	addb	%al, (%rax)
     4b7:	00  <unknown>
Disassembly of section .init:
_init:
     4b8:	48 83 ec 08 	subq	$8, %rsp
     4bc:	48 8b 05 25 0b 20 00 	movq	2100005(%rip), %rax
     4c3:	48 85 c0 	testq	%rax, %rax
     4c6:	74 02 	je	2 <_init+0x12>
     4c8:	ff d0 	callq	*%rax
     4ca:	48 83 c4 08 	addq	$8, %rsp
     4ce:	c3 	retq
Disassembly of section .plt:
.plt:
     4d0:	ff 35 f2 0a 20 00 	pushq	2099954(%rip)
     4d6:	ff 25 f4 0a 20 00 	jmpq	*2099956(%rip)
     4dc:	0f 1f 40 00 	nopl	(%rax)
Disassembly of section .plt.got:
.plt.got:
     4e0:	ff 25 12 0b 20 00 	jmpq	*2099986(%rip)
     4e6:	66 90 	nop
Disassembly of section .text:
_start:
     4f0:	31 ed 	xorl	%ebp, %ebp
     4f2:	49 89 d1 	movq	%rdx, %r9
     4f5:	5e 	popq	%rsi
     4f6:	48 89 e2 	movq	%rsp, %rdx
     4f9:	48 83 e4 f0 	andq	$-16, %rsp
     4fd:	50 	pushq	%rax
     4fe:	54 	pushq	%rsp
     4ff:	4c 8d 05 7a 01 00 00 	leaq	378(%rip), %r8
     506:	48 8d 0d 03 01 00 00 	leaq	259(%rip), %rcx
     50d:	48 8d 3d e6 00 00 00 	leaq	230(%rip), %rdi
     514:	ff 15 c6 0a 20 00 	callq	*2099910(%rip)
     51a:	f4 	hlt
     51b:	0f 1f 44 00 00 	nopl	(%rax,%rax)

deregister_tm_clones:
     520:	48 8d 3d e9 0a 20 00 	leaq	2099945(%rip), %rdi
     527:	55 	pushq	%rbp
     528:	48 8d 05 e1 0a 20 00 	leaq	2099937(%rip), %rax
     52f:	48 39 f8 	cmpq	%rdi, %rax
     532:	48 89 e5 	movq	%rsp, %rbp
     535:	74 19 	je	25 <deregister_tm_clones+0x30>
     537:	48 8b 05 9a 0a 20 00 	movq	2099866(%rip), %rax
     53e:	48 85 c0 	testq	%rax, %rax
     541:	74 0d 	je	13 <deregister_tm_clones+0x30>
     543:	5d 	popq	%rbp
     544:	ff e0 	jmpq	*%rax
     546:	66 2e 0f 1f 84 00 00 00 00 00 	nopw	%cs:(%rax,%rax)
     550:	5d 	popq	%rbp
     551:	c3 	retq
     552:	0f 1f 40 00 	nopl	(%rax)
     556:	66 2e 0f 1f 84 00 00 00 00 00 	nopw	%cs:(%rax,%rax)

register_tm_clones:
     560:	48 8d 3d a9 0a 20 00 	leaq	2099881(%rip), %rdi
     567:	48 8d 35 a2 0a 20 00 	leaq	2099874(%rip), %rsi
     56e:	55 	pushq	%rbp
     56f:	48 29 fe 	subq	%rdi, %rsi
     572:	48 89 e5 	movq	%rsp, %rbp
     575:	48 c1 fe 03 	sarq	$3, %rsi
     579:	48 89 f0 	movq	%rsi, %rax
     57c:	48 c1 e8 3f 	shrq	$63, %rax
     580:	48 01 c6 	addq	%rax, %rsi
     583:	48 d1 fe 	sarq	%rsi
     586:	74 18 	je	24 <register_tm_clones+0x40>
     588:	48 8b 05 61 0a 20 00 	movq	2099809(%rip), %rax
     58f:	48 85 c0 	testq	%rax, %rax
     592:	74 0c 	je	12 <register_tm_clones+0x40>
     594:	5d 	popq	%rbp
     595:	ff e0 	jmpq	*%rax
     597:	66 0f 1f 84 00 00 00 00 00 	nopw	(%rax,%rax)
     5a0:	5d 	popq	%rbp
     5a1:	c3 	retq
     5a2:	0f 1f 40 00 	nopl	(%rax)
     5a6:	66 2e 0f 1f 84 00 00 00 00 00 	nopw	%cs:(%rax,%rax)

__do_global_dtors_aux:
     5b0:	80 3d 59 0a 20 00 00 	cmpb	$0, 2099801(%rip)
     5b7:	75 2f 	jne	47 <__do_global_dtors_aux+0x38>
     5b9:	48 83 3d 37 0a 20 00 00 	cmpq	$0, 2099767(%rip)
     5c1:	55 	pushq	%rbp
     5c2:	48 89 e5 	movq	%rsp, %rbp
     5c5:	74 0c 	je	12 <__do_global_dtors_aux+0x23>
     5c7:	48 8b 3d 3a 0a 20 00 	movq	2099770(%rip), %rdi
     5ce:	e8 0d ff ff ff 	callq	-243 <.plt.got>
     5d3:	e8 48 ff ff ff 	callq	-184 <deregister_tm_clones>
     5d8:	c6 05 31 0a 20 00 01 	movb	$1, 2099761(%rip)
     5df:	5d 	popq	%rbp
     5e0:	c3 	retq
     5e1:	0f 1f 80 00 00 00 00 	nopl	(%rax)
     5e8:	f3 c3 	rep		retq
     5ea:	66 0f 1f 44 00 00 	nopw	(%rax,%rax)

frame_dummy:
     5f0:	55 	pushq	%rbp
     5f1:	48 89 e5 	movq	%rsp, %rbp
     5f4:	5d 	popq	%rbp
     5f5:	e9 66 ff ff ff 	jmp	-154 <register_tm_clones>

main:
     5fa:	55 	pushq	%rbp
     5fb:	48 89 e5 	movq	%rsp, %rbp
     5fe:	b8 00 00 00 00 	movl	$0, %eax
     603:	5d 	popq	%rbp
     604:	c3 	retq
     605:	66 2e 0f 1f 84 00 00 00 00 00 	nopw	%cs:(%rax,%rax)
     60f:	90 	nop

__libc_csu_init:
     610:	41 57 	pushq	%r15
     612:	41 56 	pushq	%r14
     614:	49 89 d7 	movq	%rdx, %r15
     617:	41 55 	pushq	%r13
     619:	41 54 	pushq	%r12
     61b:	4c 8d 25 ce 07 20 00 	leaq	2099150(%rip), %r12
     622:	55 	pushq	%rbp
     623:	48 8d 2d ce 07 20 00 	leaq	2099150(%rip), %rbp
     62a:	53 	pushq	%rbx
     62b:	41 89 fd 	movl	%edi, %r13d
     62e:	49 89 f6 	movq	%rsi, %r14
     631:	4c 29 e5 	subq	%r12, %rbp
     634:	48 83 ec 08 	subq	$8, %rsp
     638:	48 c1 fd 03 	sarq	$3, %rbp
     63c:	e8 77 fe ff ff 	callq	-393 <_init>
     641:	48 85 ed 	testq	%rbp, %rbp
     644:	74 20 	je	32 <__libc_csu_init+0x56>
     646:	31 db 	xorl	%ebx, %ebx
     648:	0f 1f 84 00 00 00 00 00 	nopl	(%rax,%rax)
     650:	4c 89 fa 	movq	%r15, %rdx
     653:	4c 89 f6 	movq	%r14, %rsi
     656:	44 89 ef 	movl	%r13d, %edi
     659:	41 ff 14 dc 	callq	*(%r12,%rbx,8)
     65d:	48 83 c3 01 	addq	$1, %rbx
     661:	48 39 dd 	cmpq	%rbx, %rbp
     664:	75 ea 	jne	-22 <__libc_csu_init+0x40>
     666:	48 83 c4 08 	addq	$8, %rsp
     66a:	5b 	popq	%rbx
     66b:	5d 	popq	%rbp
     66c:	41 5c 	popq	%r12
     66e:	41 5d 	popq	%r13
     670:	41 5e 	popq	%r14
     672:	41 5f 	popq	%r15
     674:	c3 	retq
     675:	90 	nop
     676:	66 2e 0f 1f 84 00 00 00 00 00 	nopw	%cs:(%rax,%rax)

__libc_csu_fini:
     680:	f3 c3 	rep		retq
Disassembly of section .fini:
_fini:
     684:	48 83 ec 08 	subq	$8, %rsp
     688:	48 83 c4 08 	addq	$8, %rsp
     68c:	c3 	retq
Disassembly of section .rodata:
_IO_stdin_used:
     690:	01 00 	addl	%eax, (%rax)
     692:	02 00 	addb	(%rax), %al
Disassembly of section .eh_frame_hdr:
__GNU_EH_FRAME_HDR:
     694:	01 1b 	addl	%ebx, (%rbx)
     696:	03 3b 	addl	(%rbx), %edi
     698:	38 00 	cmpb	%al, (%rax)
     69a:	00 00 	addb	%al, (%rax)
     69c:	06  <unknown>
     69d:	00 00 	addb	%al, (%rax)
     69f:	00 3c fe 	addb	%bh, (%rsi,%rdi,8)
     6a2:	ff ff  <unknown>
     6a4:	84 00 	testb	%al, (%rax)
     6a6:	00 00 	addb	%al, (%rax)
     6a8:	4c fe ff  <unknown>
     6ab:	ff ac 00 00 00 5c fe 	ljmpl	*-27525120(%rax,%rax)
     6b2:	ff ff  <unknown>
     6b4:	54 	pushq	%rsp
     6b5:	00 00 	addb	%al, (%rax)
     6b7:	00 66 ff 	addb	%ah, -1(%rsi)
     6ba:	ff ff  <unknown>
     6bc:	c4 00 00  <unknown>
     6bf:	00 7c ff ff 	addb	%bh, -1(%rdi,%rdi,8)
     6c3:	ff e4 	jmpq	*%rsp
     6c5:	00 00 	addb	%al, (%rax)
     6c7:	00 ec 	addb	%ch, %ah
     6c9:	ff ff  <unknown>
     6cb:	ff 2c 01 	ljmpl	*(%rcx,%rax)
     6ce:	00 00 	addb	%al, (%rax)
Disassembly of section .eh_frame:
.eh_frame:
     6d0:	14 00 	adcb	$0, %al
     6d2:	00 00 	addb	%al, (%rax)
     6d4:	00 00 	addb	%al, (%rax)
     6d6:	00 00 	addb	%al, (%rax)
     6d8:	01 7a 52 	addl	%edi, 82(%rdx)
     6db:	00 01 	addb	%al, (%rcx)
     6dd:	78 10 	js	16 <.eh_frame+0x1f>
     6df:	01 1b 	addl	%ebx, (%rbx)
     6e1:	0c 07 	orb	$7, %al
     6e3:	08 90 01 07 10 14 	orb	%dl, 336594689(%rax)
     6e9:	00 00 	addb	%al, (%rax)
     6eb:	00 1c 00 	addb	%bl, (%rax,%rax)
     6ee:	00 00 	addb	%al, (%rax)
     6f0:	00 fe 	addb	%bh, %dh
     6f2:	ff ff  <unknown>
     6f4:	2b 00 	subl	(%rax), %eax
     6f6:	00 00 	addb	%al, (%rax)
     6f8:	00 00 	addb	%al, (%rax)
     6fa:	00 00 	addb	%al, (%rax)
     6fc:	00 00 	addb	%al, (%rax)
     6fe:	00 00 	addb	%al, (%rax)
     700:	14 00 	adcb	$0, %al
     702:	00 00 	addb	%al, (%rax)
     704:	00 00 	addb	%al, (%rax)
     706:	00 00 	addb	%al, (%rax)
     708:	01 7a 52 	addl	%edi, 82(%rdx)
     70b:	00 01 	addb	%al, (%rcx)
     70d:	78 10 	js	16 <.eh_frame+0x4f>
     70f:	01 1b 	addl	%ebx, (%rbx)
     711:	0c 07 	orb	$7, %al
     713:	08 90 01 00 00 24 	orb	%dl, 603979777(%rax)
     719:	00 00 	addb	%al, (%rax)
     71b:	00 1c 00 	addb	%bl, (%rax,%rax)
     71e:	00 00 	addb	%al, (%rax)
     720:	b0 fd 	movb	$-3, %al
     722:	ff ff  <unknown>
     724:	10 00 	adcb	%al, (%rax)
     726:	00 00 	addb	%al, (%rax)
     728:	00 0e 	addb	%cl, (%rsi)
     72a:	10 46 0e 	adcb	%al, 14(%rsi)
     72d:	18 4a 0f 	sbbb	%cl, 15(%rdx)
     730:	0b 77 08 	orl	8(%rdi), %esi
     733:	80 00 3f 	addb	$63, (%rax)
     736:	1a 3b 	sbbb	(%rbx), %bh
     738:	2a 33 	subb	(%rbx), %dh
     73a:	24 22 	andb	$34, %al
     73c:	00 00 	addb	%al, (%rax)
     73e:	00 00 	addb	%al, (%rax)
     740:	14 00 	adcb	$0, %al
     742:	00 00 	addb	%al, (%rax)
     744:	44 00 00 	addb	%r8b, (%rax)
     747:	00 98 fd ff ff 08 	addb	%bl, 150994941(%rax)
     74d:	00 00 	addb	%al, (%rax)
     74f:	00 00 	addb	%al, (%rax)
     751:	00 00 	addb	%al, (%rax)
     753:	00 00 	addb	%al, (%rax)
     755:	00 00 	addb	%al, (%rax)
     757:	00 1c 00 	addb	%bl, (%rax,%rax)
     75a:	00 00 	addb	%al, (%rax)
     75c:	5c 	popq	%rsp
     75d:	00 00 	addb	%al, (%rax)
     75f:	00 9a fe ff ff 0b 	addb	%bl, 201326590(%rdx)
     765:	00 00 	addb	%al, (%rax)
     767:	00 00 	addb	%al, (%rax)
     769:	41 0e  <unknown>
     76b:	10 86 02 43 0d 06 	adcb	%al, 101532418(%rsi)
     771:	46 0c 07 	orb	$7, %al
     774:	08 00 	orb	%al, (%rax)
     776:	00 00 	addb	%al, (%rax)
     778:	44 00 00 	addb	%r8b, (%rax)
     77b:	00 7c 00 00 	addb	%bh, (%rax,%rax)
     77f:	00 90 fe ff ff 65 	addb	%dl, 1711276030(%rax)
     785:	00 00 	addb	%al, (%rax)
     787:	00 00 	addb	%al, (%rax)
     789:	42 0e  <unknown>
     78b:	10 8f 02 42 0e 18 	adcb	%cl, 403587586(%rdi)
     791:	8e 03 	movw	(%rbx), %es
     793:	45 0e  <unknown>
     795:	20 8d 04 42 0e 28 	andb	%cl, 672023044(%rbp)
     79b:	8c 05 48 0e 30 86 	movw	%es, -2043670968(%rip)
     7a1:	06  <unknown>
     7a2:	48 0e  <unknown>
     7a4:	38 83 07 4d 0e 40 	cmpb	%al, 1074679047(%rbx)
     7aa:	72 0e 	jb	14 <.eh_frame+0xea>
     7ac:	38 41 0e 	cmpb	%al, 14(%rcx)
     7af:	30 41 0e 	xorb	%al, 14(%rcx)
     7b2:	28 42 0e 	subb	%al, 14(%rdx)
     7b5:	20 42 0e 	andb	%al, 14(%rdx)
     7b8:	18 42 0e 	sbbb	%al, 14(%rdx)
     7bb:	10 42 0e 	adcb	%al, 14(%rdx)
     7be:	08 00 	orb	%al, (%rax)
     7c0:	10 00 	adcb	%al, (%rax)
     7c2:	00 00 	addb	%al, (%rax)
     7c4:	c4 00 00  <unknown>
     7c7:	00 b8 fe ff ff 02 	addb	%bh, 50331646(%rax)
     7cd:	00 00 	addb	%al, (%rax)
     7cf:	00 00 	addb	%al, (%rax)
     7d1:	00 00 	addb	%al, (%rax)
     7d3:	00 00 	addb	%al, (%rax)

__FRAME_END__:
     7d4:	00 00 	addb	%al, (%rax)
     7d6:	00 00 	addb	%al, (%rax)
Disassembly of section .init_array:
__init_array_start:
  200df0:	f0 	lock
  200df1:	05 00 00 00 00 	addl	$0, %eax
  200df6:	00 00 	addb	%al, (%rax)
Disassembly of section .fini_array:
__do_global_dtors_aux_fini_array_entry:
  200df8:	b0 05 	movb	$5, %al
  200dfa:	00 00 	addb	%al, (%rax)
  200dfc:	00 00 	addb	%al, (%rax)
  200dfe:	00 00 	addb	%al, (%rax)
Disassembly of section .dynamic:
_DYNAMIC:
  200e00:	01 00 	addl	%eax, (%rax)
  200e02:	00 00 	addb	%al, (%rax)
  200e04:	00 00 	addb	%al, (%rax)
  200e06:	00 00 	addb	%al, (%rax)
  200e08:	01 00 	addl	%eax, (%rax)
  200e0a:	00 00 	addb	%al, (%rax)
  200e0c:	00 00 	addb	%al, (%rax)
  200e0e:	00 00 	addb	%al, (%rax)
  200e10:	0c 00 	orb	$0, %al
  200e12:	00 00 	addb	%al, (%rax)
  200e14:	00 00 	addb	%al, (%rax)
  200e16:	00 00 	addb	%al, (%rax)
  200e18:	b8 04 00 00 00 	movl	$4, %eax
  200e1d:	00 00 	addb	%al, (%rax)
  200e1f:	00 0d 00 00 00 00 	addb	%cl, (%rip)
  200e25:	00 00 	addb	%al, (%rax)
  200e27:	00 84 06 00 00 00 00 	addb	%al, (%rsi,%rax)
  200e2e:	00 00 	addb	%al, (%rax)
  200e30:	19 00 	sbbl	%eax, (%rax)
  200e32:	00 00 	addb	%al, (%rax)
  200e34:	00 00 	addb	%al, (%rax)
  200e36:	00 00 	addb	%al, (%rax)
  200e38:	f0 	lock
  200e39:	0d 20 00 00 00 	orl	$32, %eax
  200e3e:	00 00 	addb	%al, (%rax)
  200e40:	1b 00 	sbbl	(%rax), %eax
  200e42:	00 00 	addb	%al, (%rax)
  200e44:	00 00 	addb	%al, (%rax)
  200e46:	00 00 	addb	%al, (%rax)
  200e48:	08 00 	orb	%al, (%rax)
  200e4a:	00 00 	addb	%al, (%rax)
  200e4c:	00 00 	addb	%al, (%rax)
  200e4e:	00 00 	addb	%al, (%rax)
  200e50:	1a 00 	sbbb	(%rax), %al
  200e52:	00 00 	addb	%al, (%rax)
  200e54:	00 00 	addb	%al, (%rax)
  200e56:	00 00 	addb	%al, (%rax)
  200e58:	f8 	clc
  200e59:	0d 20 00 00 00 	orl	$32, %eax
  200e5e:	00 00 	addb	%al, (%rax)
  200e60:	1c 00 	sbbb	$0, %al
  200e62:	00 00 	addb	%al, (%rax)
  200e64:	00 00 	addb	%al, (%rax)
  200e66:	00 00 	addb	%al, (%rax)
  200e68:	08 00 	orb	%al, (%rax)
  200e6a:	00 00 	addb	%al, (%rax)
  200e6c:	00 00 	addb	%al, (%rax)
  200e6e:	00 00 	addb	%al, (%rax)
  200e70:	f5 	cmc
  200e71:	fe ff  <unknown>
  200e73:	6f 	outsl	(%rsi), %dx
  200e74:	00 00 	addb	%al, (%rax)
  200e76:	00 00 	addb	%al, (%rax)
  200e78:	98 	cwtl
  200e79:	02 00 	addb	(%rax), %al
  200e7b:	00 00 	addb	%al, (%rax)
  200e7d:	00 00 	addb	%al, (%rax)
  200e7f:	00 05 00 00 00 00 	addb	%al, (%rip)
  200e85:	00 00 	addb	%al, (%rax)
  200e87:	00 48 03 	addb	%cl, 3(%rax)
  200e8a:	00 00 	addb	%al, (%rax)
  200e8c:	00 00 	addb	%al, (%rax)
  200e8e:	00 00 	addb	%al, (%rax)
  200e90:	06  <unknown>
  200e91:	00 00 	addb	%al, (%rax)
  200e93:	00 00 	addb	%al, (%rax)
  200e95:	00 00 	addb	%al, (%rax)
  200e97:	00 b8 02 00 00 00 	addb	%bh, 2(%rax)
  200e9d:	00 00 	addb	%al, (%rax)
  200e9f:	00 0a 	addb	%cl, (%rdx)
  200ea1:	00 00 	addb	%al, (%rax)
  200ea3:	00 00 	addb	%al, (%rax)
  200ea5:	00 00 	addb	%al, (%rax)
  200ea7:	00 7d 00 	addb	%bh, (%rbp)
  200eaa:	00 00 	addb	%al, (%rax)
  200eac:	00 00 	addb	%al, (%rax)
  200eae:	00 00 	addb	%al, (%rax)
  200eb0:	0b 00 	orl	(%rax), %eax
  200eb2:	00 00 	addb	%al, (%rax)
  200eb4:	00 00 	addb	%al, (%rax)
  200eb6:	00 00 	addb	%al, (%rax)
  200eb8:	18 00 	sbbb	%al, (%rax)
  200eba:	00 00 	addb	%al, (%rax)
  200ebc:	00 00 	addb	%al, (%rax)
  200ebe:	00 00 	addb	%al, (%rax)
  200ec0:	15 00 00 00 00 	adcl	$0, %eax
  200ec5:	00 00 	addb	%al, (%rax)
  200ec7:	00 00 	addb	%al, (%rax)
  200ec9:	00 00 	addb	%al, (%rax)
  200ecb:	00 00 	addb	%al, (%rax)
  200ecd:	00 00 	addb	%al, (%rax)
  200ecf:	00 03 	addb	%al, (%rbx)
  200ed1:	00 00 	addb	%al, (%rax)
  200ed3:	00 00 	addb	%al, (%rax)
  200ed5:	00 00 	addb	%al, (%rax)
  200ed7:	00 c0 	addb	%al, %al
  200ed9:	0f 20 00  <unknown>
  200edc:	00 00 	addb	%al, (%rax)
  200ede:	00 00 	addb	%al, (%rax)
  200ee0:	07  <unknown>
  200ee1:	00 00 	addb	%al, (%rax)
  200ee3:	00 00 	addb	%al, (%rax)
  200ee5:	00 00 	addb	%al, (%rax)
  200ee7:	00 f8 	addb	%bh, %al
  200ee9:	03 00 	addl	(%rax), %eax
  200eeb:	00 00 	addb	%al, (%rax)
  200eed:	00 00 	addb	%al, (%rax)
  200eef:	00 08 	addb	%cl, (%rax)
  200ef1:	00 00 	addb	%al, (%rax)
  200ef3:	00 00 	addb	%al, (%rax)
  200ef5:	00 00 	addb	%al, (%rax)
  200ef7:	00 c0 	addb	%al, %al
  200ef9:	00 00 	addb	%al, (%rax)
  200efb:	00 00 	addb	%al, (%rax)
  200efd:	00 00 	addb	%al, (%rax)
  200eff:	00 09 	addb	%cl, (%rcx)
  200f01:	00 00 	addb	%al, (%rax)
  200f03:	00 00 	addb	%al, (%rax)
  200f05:	00 00 	addb	%al, (%rax)
  200f07:	00 18 	addb	%bl, (%rax)
  200f09:	00 00 	addb	%al, (%rax)
  200f0b:	00 00 	addb	%al, (%rax)
  200f0d:	00 00 	addb	%al, (%rax)
  200f0f:	00 1e 	addb	%bl, (%rsi)
  200f11:	00 00 	addb	%al, (%rax)
  200f13:	00 00 	addb	%al, (%rax)
  200f15:	00 00 	addb	%al, (%rax)
  200f17:	00 08 	addb	%cl, (%rax)
  200f19:	00 00 	addb	%al, (%rax)
  200f1b:	00 00 	addb	%al, (%rax)
  200f1d:	00 00 	addb	%al, (%rax)
  200f1f:	00 fb 	addb	%bh, %bl
  200f21:	ff ff  <unknown>
  200f23:	6f 	outsl	(%rsi), %dx
  200f24:	00 00 	addb	%al, (%rax)
  200f26:	00 00 	addb	%al, (%rax)
  200f28:	01 00 	addl	%eax, (%rax)
  200f2a:	00 08 	addb	%cl, (%rax)
  200f2c:	00 00 	addb	%al, (%rax)
  200f2e:	00 00 	addb	%al, (%rax)
  200f30:	fe ff  <unknown>
  200f32:	ff 6f 00 	ljmpl	*(%rdi)
  200f35:	00 00 	addb	%al, (%rax)
  200f37:	00 d8 	addb	%bl, %al
  200f39:	03 00 	addl	(%rax), %eax
  200f3b:	00 00 	addb	%al, (%rax)
  200f3d:	00 00 	addb	%al, (%rax)
  200f3f:	00 ff 	addb	%bh, %bh
  200f41:	ff ff  <unknown>
  200f43:	6f 	outsl	(%rsi), %dx
  200f44:	00 00 	addb	%al, (%rax)
  200f46:	00 00 	addb	%al, (%rax)
  200f48:	01 00 	addl	%eax, (%rax)
  200f4a:	00 00 	addb	%al, (%rax)
  200f4c:	00 00 	addb	%al, (%rax)
  200f4e:	00 00 	addb	%al, (%rax)
  200f50:	f0 	lock
  200f51:	ff ff  <unknown>
  200f53:	6f 	outsl	(%rsi), %dx
  200f54:	00 00 	addb	%al, (%rax)
  200f56:	00 00 	addb	%al, (%rax)
  200f58:	c6 03 00 	movb	$0, (%rbx)
  200f5b:	00 00 	addb	%al, (%rax)
  200f5d:	00 00 	addb	%al, (%rax)
  200f5f:	00 f9 	addb	%bh, %cl
  200f61:	ff ff  <unknown>
  200f63:	6f 	outsl	(%rsi), %dx
  200f64:	00 00 	addb	%al, (%rax)
  200f66:	00 00 	addb	%al, (%rax)
  200f68:	03 00 	addl	(%rax), %eax
  200f6a:	00 00 	addb	%al, (%rax)
  200f6c:	00 00 	addb	%al, (%rax)
  200f6e:	00 00 	addb	%al, (%rax)
  200f70:	00 00 	addb	%al, (%rax)
  200f72:	00 00 	addb	%al, (%rax)
  200f74:	00 00 	addb	%al, (%rax)
  200f76:	00 00 	addb	%al, (%rax)
  200f78:	00 00 	addb	%al, (%rax)
  200f7a:	00 00 	addb	%al, (%rax)
  200f7c:	00 00 	addb	%al, (%rax)
  200f7e:	00 00 	addb	%al, (%rax)
  200f80:	00 00 	addb	%al, (%rax)
  200f82:	00 00 	addb	%al, (%rax)
  200f84:	00 00 	addb	%al, (%rax)
  200f86:	00 00 	addb	%al, (%rax)
  200f88:	00 00 	addb	%al, (%rax)
  200f8a:	00 00 	addb	%al, (%rax)
  200f8c:	00 00 	addb	%al, (%rax)
  200f8e:	00 00 	addb	%al, (%rax)
  200f90:	00 00 	addb	%al, (%rax)
  200f92:	00 00 	addb	%al, (%rax)
  200f94:	00 00 	addb	%al, (%rax)
  200f96:	00 00 	addb	%al, (%rax)
  200f98:	00 00 	addb	%al, (%rax)
  200f9a:	00 00 	addb	%al, (%rax)
  200f9c:	00 00 	addb	%al, (%rax)
  200f9e:	00 00 	addb	%al, (%rax)
  200fa0:	00 00 	addb	%al, (%rax)
  200fa2:	00 00 	addb	%al, (%rax)
  200fa4:	00 00 	addb	%al, (%rax)
  200fa6:	00 00 	addb	%al, (%rax)
  200fa8:	00 00 	addb	%al, (%rax)
  200faa:	00 00 	addb	%al, (%rax)
  200fac:	00 00 	addb	%al, (%rax)
  200fae:	00 00 	addb	%al, (%rax)
  200fb0:	00 00 	addb	%al, (%rax)
  200fb2:	00 00 	addb	%al, (%rax)
  200fb4:	00 00 	addb	%al, (%rax)
  200fb6:	00 00 	addb	%al, (%rax)
  200fb8:	00 00 	addb	%al, (%rax)
  200fba:	00 00 	addb	%al, (%rax)
  200fbc:	00 00 	addb	%al, (%rax)
  200fbe:	00 00 	addb	%al, (%rax)
Disassembly of section .got:
_GLOBAL_OFFSET_TABLE_:
  200fc0:	00 0e 	addb	%cl, (%rsi)
  200fc2:	20 00 	andb	%al, (%rax)
  200fc4:	00 00 	addb	%al, (%rax)
  200fc6:	00 00 	addb	%al, (%rax)
  200fc8:	00 00 	addb	%al, (%rax)
  200fca:	00 00 	addb	%al, (%rax)
  200fcc:	00 00 	addb	%al, (%rax)
  200fce:	00 00 	addb	%al, (%rax)
  200fd0:	00 00 	addb	%al, (%rax)
  200fd2:	00 00 	addb	%al, (%rax)
  200fd4:	00 00 	addb	%al, (%rax)
  200fd6:	00 00 	addb	%al, (%rax)
  200fd8:	00 00 	addb	%al, (%rax)
  200fda:	00 00 	addb	%al, (%rax)
  200fdc:	00 00 	addb	%al, (%rax)
  200fde:	00 00 	addb	%al, (%rax)
  200fe0:	00 00 	addb	%al, (%rax)
  200fe2:	00 00 	addb	%al, (%rax)
  200fe4:	00 00 	addb	%al, (%rax)
  200fe6:	00 00 	addb	%al, (%rax)
  200fe8:	00 00 	addb	%al, (%rax)
  200fea:	00 00 	addb	%al, (%rax)
  200fec:	00 00 	addb	%al, (%rax)
  200fee:	00 00 	addb	%al, (%rax)
  200ff0:	00 00 	addb	%al, (%rax)
  200ff2:	00 00 	addb	%al, (%rax)
  200ff4:	00 00 	addb	%al, (%rax)
  200ff6:	00 00 	addb	%al, (%rax)
  200ff8:	00 00 	addb	%al, (%rax)
  200ffa:	00 00 	addb	%al, (%rax)
  200ffc:	00 00 	addb	%al, (%rax)
  200ffe:	00 00 	addb	%al, (%rax)
Disassembly of section .data:
data_start:
  201000:	00 00 	addb	%al, (%rax)
  201002:	00 00 	addb	%al, (%rax)
  201004:	00 00 	addb	%al, (%rax)
  201006:	00 00 	addb	%al, (%rax)

__dso_handle:
  201008:	08 10 	orb	%dl, (%rax)
  20100a:	20 00 	andb	%al, (%rax)
  20100c:	00 00 	addb	%al, (%rax)
  20100e:	00 00 	addb	%al, (%rax)
Disassembly of section .bss:
completed.7696:
...
Disassembly of section .comment:
.comment:
       0:	47 43  <unknown>
       2:	43 3a 20 	cmpb	(%r8), %spl
       5:	28 55 62 	subb	%dl, 98(%rbp)
       8:	75 6e 	jne	110 <x.c+0x78>
       a:	74 75 	je	117 <x.c+0x81>
       c:	20 37 	andb	%dh, (%rdi)
       e:	2e 33 2e 	xorl	%cs:(%rsi), %ebp
      11:	30 2d 32 37 75 62 	xorb	%ch, 1651849010(%rip)
      17:	75 6e 	jne	110 <x.c+0x87>
      19:	74 75 	je	117 <x.c+0x90>
      1b:	31 7e 31 	xorl	%edi, 49(%rsi)
      1e:	38 2e 	cmpb	%ch, (%rsi)
      20:	30 34 29 	xorb	%dh, (%rcx,%rbp)
      23:	20 37 	andb	%dh, (%rdi)
      25:	2e 33 2e 	xorl	%cs:(%rsi), %ebp
      28:	30 00 	xorb	%al, (%rax)
Disassembly of section .flag:
.flag:
       0:	54 	pushq	%rsp
       1:	68 65 20 66 6c 	pushq	$1818632293
       6:	61  <unknown>
       7:	67 20 69 73 	andb	%ch, 115(%ecx)
       b:	3a 20 	cmpb	(%rax), %ah
       d:	64 51 	pushq	%rcx
       f:	77 34 	ja	52 <x.c+0x45>
      11:	77 39 	ja	57 <x.c+0x4c>
      13:	57 	pushq	%rdi
      14:	67 58 	popq	%rax
      16:	63 51 0a 	movslq	10(%rcx), %edx
Disassembly of section .symtab:
.symtab:
       0:	00 00 	addb	%al, (%rax)
       2:	00 00 	addb	%al, (%rax)
       4:	00 00 	addb	%al, (%rax)
       6:	00 00 	addb	%al, (%rax)
       8:	00 00 	addb	%al, (%rax)
       a:	00 00 	addb	%al, (%rax)
       c:	00 00 	addb	%al, (%rax)
       e:	00 00 	addb	%al, (%rax)
      10:	00 00 	addb	%al, (%rax)
      12:	00 00 	addb	%al, (%rax)
      14:	00 00 	addb	%al, (%rax)
      16:	00 00 	addb	%al, (%rax)
      18:	00 00 	addb	%al, (%rax)
      1a:	00 00 	addb	%al, (%rax)
      1c:	03 00 	addl	(%rax), %eax
      1e:	01 00 	addl	%eax, (%rax)
      20:	38 02 	cmpb	%al, (%rdx)
      22:	00 00 	addb	%al, (%rax)
      24:	00 00 	addb	%al, (%rax)
      26:	00 00 	addb	%al, (%rax)
      28:	00 00 	addb	%al, (%rax)
      2a:	00 00 	addb	%al, (%rax)
      2c:	00 00 	addb	%al, (%rax)
      2e:	00 00 	addb	%al, (%rax)
      30:	00 00 	addb	%al, (%rax)
      32:	00 00 	addb	%al, (%rax)
      34:	03 00 	addl	(%rax), %eax
      36:	02 00 	addb	(%rax), %al
      38:	54 	pushq	%rsp
      39:	02 00 	addb	(%rax), %al
      3b:	00 00 	addb	%al, (%rax)
      3d:	00 00 	addb	%al, (%rax)
      3f:	00 00 	addb	%al, (%rax)
      41:	00 00 	addb	%al, (%rax)
      43:	00 00 	addb	%al, (%rax)
      45:	00 00 	addb	%al, (%rax)
      47:	00 00 	addb	%al, (%rax)
      49:	00 00 	addb	%al, (%rax)
      4b:	00 03 	addb	%al, (%rbx)
      4d:	00 03 	addb	%al, (%rbx)
      4f:	00 74 02 00 	addb	%dh, (%rdx,%rax)
      53:	00 00 	addb	%al, (%rax)
      55:	00 00 	addb	%al, (%rax)
      57:	00 00 	addb	%al, (%rax)
      59:	00 00 	addb	%al, (%rax)
      5b:	00 00 	addb	%al, (%rax)
      5d:	00 00 	addb	%al, (%rax)
      5f:	00 00 	addb	%al, (%rax)
      61:	00 00 	addb	%al, (%rax)
      63:	00 03 	addb	%al, (%rbx)
      65:	00 04 00 	addb	%al, (%rax,%rax)
      68:	98 	cwtl
      69:	02 00 	addb	(%rax), %al
      6b:	00 00 	addb	%al, (%rax)
      6d:	00 00 	addb	%al, (%rax)
      6f:	00 00 	addb	%al, (%rax)
      71:	00 00 	addb	%al, (%rax)
      73:	00 00 	addb	%al, (%rax)
      75:	00 00 	addb	%al, (%rax)
      77:	00 00 	addb	%al, (%rax)
      79:	00 00 	addb	%al, (%rax)
      7b:	00 03 	addb	%al, (%rbx)
      7d:	00 05 00 b8 02 00 	addb	%al, 178176(%rip)
      83:	00 00 	addb	%al, (%rax)
      85:	00 00 	addb	%al, (%rax)
      87:	00 00 	addb	%al, (%rax)
      89:	00 00 	addb	%al, (%rax)
      8b:	00 00 	addb	%al, (%rax)
      8d:	00 00 	addb	%al, (%rax)
      8f:	00 00 	addb	%al, (%rax)
      91:	00 00 	addb	%al, (%rax)
      93:	00 03 	addb	%al, (%rbx)
      95:	00 06 	addb	%al, (%rsi)
      97:	00 48 03 	addb	%cl, 3(%rax)
      9a:	00 00 	addb	%al, (%rax)
      9c:	00 00 	addb	%al, (%rax)
      9e:	00 00 	addb	%al, (%rax)
      a0:	00 00 	addb	%al, (%rax)
      a2:	00 00 	addb	%al, (%rax)
      a4:	00 00 	addb	%al, (%rax)
      a6:	00 00 	addb	%al, (%rax)
      a8:	00 00 	addb	%al, (%rax)
      aa:	00 00 	addb	%al, (%rax)
      ac:	03 00 	addl	(%rax), %eax
      ae:	07  <unknown>
      af:	00 c6 	addb	%al, %dh
      b1:	03 00 	addl	(%rax), %eax
      b3:	00 00 	addb	%al, (%rax)
      b5:	00 00 	addb	%al, (%rax)
      b7:	00 00 	addb	%al, (%rax)
      b9:	00 00 	addb	%al, (%rax)
      bb:	00 00 	addb	%al, (%rax)
      bd:	00 00 	addb	%al, (%rax)
      bf:	00 00 	addb	%al, (%rax)
      c1:	00 00 	addb	%al, (%rax)
      c3:	00 03 	addb	%al, (%rbx)
      c5:	00 08 	addb	%cl, (%rax)
      c7:	00 d8 	addb	%bl, %al
      c9:	03 00 	addl	(%rax), %eax
      cb:	00 00 	addb	%al, (%rax)
      cd:	00 00 	addb	%al, (%rax)
      cf:	00 00 	addb	%al, (%rax)
      d1:	00 00 	addb	%al, (%rax)
      d3:	00 00 	addb	%al, (%rax)
      d5:	00 00 	addb	%al, (%rax)
      d7:	00 00 	addb	%al, (%rax)
      d9:	00 00 	addb	%al, (%rax)
      db:	00 03 	addb	%al, (%rbx)
      dd:	00 09 	addb	%cl, (%rcx)
      df:	00 f8 	addb	%bh, %al
      e1:	03 00 	addl	(%rax), %eax
      e3:	00 00 	addb	%al, (%rax)
      e5:	00 00 	addb	%al, (%rax)
      e7:	00 00 	addb	%al, (%rax)
      e9:	00 00 	addb	%al, (%rax)
      eb:	00 00 	addb	%al, (%rax)
      ed:	00 00 	addb	%al, (%rax)
      ef:	00 00 	addb	%al, (%rax)
      f1:	00 00 	addb	%al, (%rax)
      f3:	00 03 	addb	%al, (%rbx)
      f5:	00 0a 	addb	%cl, (%rdx)
      f7:	00 b8 04 00 00 00 	addb	%bh, 4(%rax)
      fd:	00 00 	addb	%al, (%rax)
      ff:	00 00 	addb	%al, (%rax)
     101:	00 00 	addb	%al, (%rax)
     103:	00 00 	addb	%al, (%rax)
     105:	00 00 	addb	%al, (%rax)
     107:	00 00 	addb	%al, (%rax)
     109:	00 00 	addb	%al, (%rax)
     10b:	00 03 	addb	%al, (%rbx)
     10d:	00 0b 	addb	%cl, (%rbx)
     10f:	00 d0 	addb	%dl, %al
     111:	04 00 	addb	$0, %al
     113:	00 00 	addb	%al, (%rax)
     115:	00 00 	addb	%al, (%rax)
     117:	00 00 	addb	%al, (%rax)
     119:	00 00 	addb	%al, (%rax)
     11b:	00 00 	addb	%al, (%rax)
     11d:	00 00 	addb	%al, (%rax)
     11f:	00 00 	addb	%al, (%rax)
     121:	00 00 	addb	%al, (%rax)
     123:	00 03 	addb	%al, (%rbx)
     125:	00 0c 00 	addb	%cl, (%rax,%rax)
     128:	e0 04 	loopne	4
     12a:	00 00 	addb	%al, (%rax)
     12c:	00 00 	addb	%al, (%rax)
     12e:	00 00 	addb	%al, (%rax)
     130:	00 00 	addb	%al, (%rax)
     132:	00 00 	addb	%al, (%rax)
     134:	00 00 	addb	%al, (%rax)
     136:	00 00 	addb	%al, (%rax)
     138:	00 00 	addb	%al, (%rax)
     13a:	00 00 	addb	%al, (%rax)
     13c:	03 00 	addl	(%rax), %eax
     13e:	0d 00 f0 04 00 	orl	$323584, %eax
     143:	00 00 	addb	%al, (%rax)
     145:	00 00 	addb	%al, (%rax)
     147:	00 00 	addb	%al, (%rax)
     149:	00 00 	addb	%al, (%rax)
     14b:	00 00 	addb	%al, (%rax)
     14d:	00 00 	addb	%al, (%rax)
     14f:	00 00 	addb	%al, (%rax)
     151:	00 00 	addb	%al, (%rax)
     153:	00 03 	addb	%al, (%rbx)
     155:	00 0e 	addb	%cl, (%rsi)
     157:	00 84 06 00 00 00 00 	addb	%al, (%rsi,%rax)
     15e:	00 00 	addb	%al, (%rax)
     160:	00 00 	addb	%al, (%rax)
     162:	00 00 	addb	%al, (%rax)
     164:	00 00 	addb	%al, (%rax)
     166:	00 00 	addb	%al, (%rax)
     168:	00 00 	addb	%al, (%rax)
     16a:	00 00 	addb	%al, (%rax)
     16c:	03 00 	addl	(%rax), %eax
     16e:	0f 00 90 06 00 00 00 	lldtw	6(%rax)
     175:	00 00 	addb	%al, (%rax)
     177:	00 00 	addb	%al, (%rax)
     179:	00 00 	addb	%al, (%rax)
     17b:	00 00 	addb	%al, (%rax)
     17d:	00 00 	addb	%al, (%rax)
     17f:	00 00 	addb	%al, (%rax)
     181:	00 00 	addb	%al, (%rax)
     183:	00 03 	addb	%al, (%rbx)
     185:	00 10 	addb	%dl, (%rax)
     187:	00 94 06 00 00 00 00 	addb	%dl, (%rsi,%rax)
     18e:	00 00 	addb	%al, (%rax)
     190:	00 00 	addb	%al, (%rax)
     192:	00 00 	addb	%al, (%rax)
     194:	00 00 	addb	%al, (%rax)
     196:	00 00 	addb	%al, (%rax)
     198:	00 00 	addb	%al, (%rax)
     19a:	00 00 	addb	%al, (%rax)
     19c:	03 00 	addl	(%rax), %eax
     19e:	11 00 	adcl	%eax, (%rax)
     1a0:	d0 06 	rolb	(%rsi)
     1a2:	00 00 	addb	%al, (%rax)
     1a4:	00 00 	addb	%al, (%rax)
     1a6:	00 00 	addb	%al, (%rax)
     1a8:	00 00 	addb	%al, (%rax)
     1aa:	00 00 	addb	%al, (%rax)
     1ac:	00 00 	addb	%al, (%rax)
     1ae:	00 00 	addb	%al, (%rax)
     1b0:	00 00 	addb	%al, (%rax)
     1b2:	00 00 	addb	%al, (%rax)
     1b4:	03 00 	addl	(%rax), %eax
     1b6:	12 00 	adcb	(%rax), %al
     1b8:	f0 	lock
     1b9:	0d 20 00 00 00 	orl	$32, %eax
     1be:	00 00 	addb	%al, (%rax)
     1c0:	00 00 	addb	%al, (%rax)
     1c2:	00 00 	addb	%al, (%rax)
     1c4:	00 00 	addb	%al, (%rax)
     1c6:	00 00 	addb	%al, (%rax)
     1c8:	00 00 	addb	%al, (%rax)
     1ca:	00 00 	addb	%al, (%rax)
     1cc:	03 00 	addl	(%rax), %eax
     1ce:	13 00 	adcl	(%rax), %eax
     1d0:	f8 	clc
     1d1:	0d 20 00 00 00 	orl	$32, %eax
     1d6:	00 00 	addb	%al, (%rax)
     1d8:	00 00 	addb	%al, (%rax)
     1da:	00 00 	addb	%al, (%rax)
     1dc:	00 00 	addb	%al, (%rax)
     1de:	00 00 	addb	%al, (%rax)
     1e0:	00 00 	addb	%al, (%rax)
     1e2:	00 00 	addb	%al, (%rax)
     1e4:	03 00 	addl	(%rax), %eax
     1e6:	14 00 	adcb	$0, %al
     1e8:	00 0e 	addb	%cl, (%rsi)
     1ea:	20 00 	andb	%al, (%rax)
     1ec:	00 00 	addb	%al, (%rax)
     1ee:	00 00 	addb	%al, (%rax)
     1f0:	00 00 	addb	%al, (%rax)
     1f2:	00 00 	addb	%al, (%rax)
     1f4:	00 00 	addb	%al, (%rax)
     1f6:	00 00 	addb	%al, (%rax)
     1f8:	00 00 	addb	%al, (%rax)
     1fa:	00 00 	addb	%al, (%rax)
     1fc:	03 00 	addl	(%rax), %eax
     1fe:	15 00 c0 0f 20 	adcl	$537903104, %eax
     203:	00 00 	addb	%al, (%rax)
     205:	00 00 	addb	%al, (%rax)
     207:	00 00 	addb	%al, (%rax)
     209:	00 00 	addb	%al, (%rax)
     20b:	00 00 	addb	%al, (%rax)
     20d:	00 00 	addb	%al, (%rax)
     20f:	00 00 	addb	%al, (%rax)
     211:	00 00 	addb	%al, (%rax)
     213:	00 03 	addb	%al, (%rbx)
     215:	00 16 	addb	%dl, (%rsi)
     217:	00 00 	addb	%al, (%rax)
     219:	10 20 	adcb	%ah, (%rax)
     21b:	00 00 	addb	%al, (%rax)
     21d:	00 00 	addb	%al, (%rax)
     21f:	00 00 	addb	%al, (%rax)
     221:	00 00 	addb	%al, (%rax)
     223:	00 00 	addb	%al, (%rax)
     225:	00 00 	addb	%al, (%rax)
     227:	00 00 	addb	%al, (%rax)
     229:	00 00 	addb	%al, (%rax)
     22b:	00 03 	addb	%al, (%rbx)
     22d:	00 17 	addb	%dl, (%rdi)
     22f:	00 10 	addb	%dl, (%rax)
     231:	10 20 	adcb	%ah, (%rax)
     233:	00 00 	addb	%al, (%rax)
     235:	00 00 	addb	%al, (%rax)
     237:	00 00 	addb	%al, (%rax)
     239:	00 00 	addb	%al, (%rax)
     23b:	00 00 	addb	%al, (%rax)
     23d:	00 00 	addb	%al, (%rax)
     23f:	00 00 	addb	%al, (%rax)
     241:	00 00 	addb	%al, (%rax)
     243:	00 03 	addb	%al, (%rbx)
     245:	00 18 	addb	%bl, (%rax)
     247:	00 00 	addb	%al, (%rax)
     249:	00 00 	addb	%al, (%rax)
     24b:	00 00 	addb	%al, (%rax)
     24d:	00 00 	addb	%al, (%rax)
     24f:	00 00 	addb	%al, (%rax)
     251:	00 00 	addb	%al, (%rax)
     253:	00 00 	addb	%al, (%rax)
     255:	00 00 	addb	%al, (%rax)
     257:	00 01 	addb	%al, (%rcx)
     259:	00 00 	addb	%al, (%rax)
     25b:	00 04 00 	addb	%al, (%rax,%rax)
     25e:	f1  <unknown>
     25f:	ff 00 	incl	(%rax)
     261:	00 00 	addb	%al, (%rax)
     263:	00 00 	addb	%al, (%rax)
     265:	00 00 	addb	%al, (%rax)
     267:	00 00 	addb	%al, (%rax)
     269:	00 00 	addb	%al, (%rax)
     26b:	00 00 	addb	%al, (%rax)
     26d:	00 00 	addb	%al, (%rax)
     26f:	00 0c 00 	addb	%cl, (%rax,%rax)
     272:	00 00 	addb	%al, (%rax)
     274:	02 00 	addb	(%rax), %al
     276:	0d 00 20 05 00 	orl	$335872, %eax
     27b:	00 00 	addb	%al, (%rax)
     27d:	00 00 	addb	%al, (%rax)
     27f:	00 00 	addb	%al, (%rax)
     281:	00 00 	addb	%al, (%rax)
     283:	00 00 	addb	%al, (%rax)
     285:	00 00 	addb	%al, (%rax)
     287:	00 0e 	addb	%cl, (%rsi)
     289:	00 00 	addb	%al, (%rax)
     28b:	00 02 	addb	%al, (%rdx)
     28d:	00 0d 00 60 05 00 	addb	%cl, 352256(%rip)
     293:	00 00 	addb	%al, (%rax)
     295:	00 00 	addb	%al, (%rax)
     297:	00 00 	addb	%al, (%rax)
     299:	00 00 	addb	%al, (%rax)
     29b:	00 00 	addb	%al, (%rax)
     29d:	00 00 	addb	%al, (%rax)
     29f:	00 21 	addb	%ah, (%rcx)
     2a1:	00 00 	addb	%al, (%rax)
     2a3:	00 02 	addb	%al, (%rdx)
     2a5:	00 0d 00 b0 05 00 	addb	%cl, 372736(%rip)
     2ab:	00 00 	addb	%al, (%rax)
     2ad:	00 00 	addb	%al, (%rax)
     2af:	00 00 	addb	%al, (%rax)
     2b1:	00 00 	addb	%al, (%rax)
     2b3:	00 00 	addb	%al, (%rax)
     2b5:	00 00 	addb	%al, (%rax)
     2b7:	00 37 	addb	%dh, (%rdi)
     2b9:	00 00 	addb	%al, (%rax)
     2bb:	00 01 	addb	%al, (%rcx)
     2bd:	00 17 	addb	%dl, (%rdi)
     2bf:	00 10 	addb	%dl, (%rax)
     2c1:	10 20 	adcb	%ah, (%rax)
     2c3:	00 00 	addb	%al, (%rax)
     2c5:	00 00 	addb	%al, (%rax)
     2c7:	00 01 	addb	%al, (%rcx)
     2c9:	00 00 	addb	%al, (%rax)
     2cb:	00 00 	addb	%al, (%rax)
     2cd:	00 00 	addb	%al, (%rax)
     2cf:	00 46 00 	addb	%al, (%rsi)
     2d2:	00 00 	addb	%al, (%rax)
     2d4:	01 00 	addl	%eax, (%rax)
     2d6:	13 00 	adcl	(%rax), %eax
     2d8:	f8 	clc
     2d9:	0d 20 00 00 00 	orl	$32, %eax
     2de:	00 00 	addb	%al, (%rax)
     2e0:	00 00 	addb	%al, (%rax)
     2e2:	00 00 	addb	%al, (%rax)
     2e4:	00 00 	addb	%al, (%rax)
     2e6:	00 00 	addb	%al, (%rax)
     2e8:	6d 	insl	%dx, %es:(%rdi)
     2e9:	00 00 	addb	%al, (%rax)
     2eb:	00 02 	addb	%al, (%rdx)
     2ed:	00 0d 00 f0 05 00 	addb	%cl, 389120(%rip)
     2f3:	00 00 	addb	%al, (%rax)
     2f5:	00 00 	addb	%al, (%rax)
     2f7:	00 00 	addb	%al, (%rax)
     2f9:	00 00 	addb	%al, (%rax)
     2fb:	00 00 	addb	%al, (%rax)
     2fd:	00 00 	addb	%al, (%rax)
     2ff:	00 79 00 	addb	%bh, (%rcx)
     302:	00 00 	addb	%al, (%rax)
     304:	01 00 	addl	%eax, (%rax)
     306:	12 00 	adcb	(%rax), %al
     308:	f0 	lock
     309:	0d 20 00 00 00 	orl	$32, %eax
     30e:	00 00 	addb	%al, (%rax)
     310:	00 00 	addb	%al, (%rax)
     312:	00 00 	addb	%al, (%rax)
     314:	00 00 	addb	%al, (%rax)
     316:	00 00 	addb	%al, (%rax)
     318:	98 	cwtl
     319:	00 00 	addb	%al, (%rax)
     31b:	00 04 00 	addb	%al, (%rax,%rax)
     31e:	f1  <unknown>
     31f:	ff 00 	incl	(%rax)
     321:	00 00 	addb	%al, (%rax)
     323:	00 00 	addb	%al, (%rax)
     325:	00 00 	addb	%al, (%rax)
     327:	00 00 	addb	%al, (%rax)
     329:	00 00 	addb	%al, (%rax)
     32b:	00 00 	addb	%al, (%rax)
     32d:	00 00 	addb	%al, (%rax)
     32f:	00 01 	addb	%al, (%rcx)
     331:	00 00 	addb	%al, (%rax)
     333:	00 04 00 	addb	%al, (%rax,%rax)
     336:	f1  <unknown>
     337:	ff 00 	incl	(%rax)
     339:	00 00 	addb	%al, (%rax)
     33b:	00 00 	addb	%al, (%rax)
     33d:	00 00 	addb	%al, (%rax)
     33f:	00 00 	addb	%al, (%rax)
     341:	00 00 	addb	%al, (%rax)
     343:	00 00 	addb	%al, (%rax)
     345:	00 00 	addb	%al, (%rax)
     347:	00 9c 00 00 00 01 00 	addb	%bl, 65536(%rax,%rax)
     34e:	11 00 	adcl	%eax, (%rax)
     350:	d4  <unknown>
     351:	07  <unknown>
     352:	00 00 	addb	%al, (%rax)
     354:	00 00 	addb	%al, (%rax)
     356:	00 00 	addb	%al, (%rax)
     358:	00 00 	addb	%al, (%rax)
     35a:	00 00 	addb	%al, (%rax)
     35c:	00 00 	addb	%al, (%rax)
     35e:	00 00 	addb	%al, (%rax)
     360:	00 00 	addb	%al, (%rax)
     362:	00 00 	addb	%al, (%rax)
     364:	04 00 	addb	$0, %al
     366:	f1  <unknown>
     367:	ff 00 	incl	(%rax)
     369:	00 00 	addb	%al, (%rax)
     36b:	00 00 	addb	%al, (%rax)
     36d:	00 00 	addb	%al, (%rax)
     36f:	00 00 	addb	%al, (%rax)
     371:	00 00 	addb	%al, (%rax)
     373:	00 00 	addb	%al, (%rax)
     375:	00 00 	addb	%al, (%rax)
     377:	00 aa 00 00 00 00 	addb	%ch, (%rdx)
     37d:	00 12 	addb	%dl, (%rdx)
     37f:	00 f8 	addb	%bh, %al
     381:	0d 20 00 00 00 	orl	$32, %eax
     386:	00 00 	addb	%al, (%rax)
     388:	00 00 	addb	%al, (%rax)
     38a:	00 00 	addb	%al, (%rax)
     38c:	00 00 	addb	%al, (%rax)
     38e:	00 00 	addb	%al, (%rax)
     390:	bb 00 00 00 01 	movl	$16777216, %ebx
     395:	00 14 00 	addb	%dl, (%rax,%rax)
     398:	00 0e 	addb	%cl, (%rsi)
     39a:	20 00 	andb	%al, (%rax)
     39c:	00 00 	addb	%al, (%rax)
     39e:	00 00 	addb	%al, (%rax)
     3a0:	00 00 	addb	%al, (%rax)
     3a2:	00 00 	addb	%al, (%rax)
     3a4:	00 00 	addb	%al, (%rax)
     3a6:	00 00 	addb	%al, (%rax)
     3a8:	c4 00 00  <unknown>
     3ab:	00 00 	addb	%al, (%rax)
     3ad:	00 12 	addb	%dl, (%rdx)
     3af:	00 f0 	addb	%dh, %al
     3b1:	0d 20 00 00 00 	orl	$32, %eax
     3b6:	00 00 	addb	%al, (%rax)
     3b8:	00 00 	addb	%al, (%rax)
     3ba:	00 00 	addb	%al, (%rax)
     3bc:	00 00 	addb	%al, (%rax)
     3be:	00 00 	addb	%al, (%rax)
     3c0:	d7 	xlatb
     3c1:	00 00 	addb	%al, (%rax)
     3c3:	00 00 	addb	%al, (%rax)
     3c5:	00 10 	addb	%dl, (%rax)
     3c7:	00 94 06 00 00 00 00 	addb	%dl, (%rsi,%rax)
     3ce:	00 00 	addb	%al, (%rax)
     3d0:	00 00 	addb	%al, (%rax)
     3d2:	00 00 	addb	%al, (%rax)
     3d4:	00 00 	addb	%al, (%rax)
     3d6:	00 00 	addb	%al, (%rax)
     3d8:	ea  <unknown>
     3d9:	00 00 	addb	%al, (%rax)
     3db:	00 01 	addb	%al, (%rcx)
     3dd:	00 15 00 c0 0f 20 	addb	%dl, 537903104(%rip)
     3e3:	00 00 	addb	%al, (%rax)
     3e5:	00 00 	addb	%al, (%rax)
     3e7:	00 00 	addb	%al, (%rax)
     3e9:	00 00 	addb	%al, (%rax)
     3eb:	00 00 	addb	%al, (%rax)
     3ed:	00 00 	addb	%al, (%rax)
     3ef:	00 00 	addb	%al, (%rax)
     3f1:	00 00 	addb	%al, (%rax)
     3f3:	00 03 	addb	%al, (%rbx)
     3f5:	00 19 	addb	%bl, (%rcx)
     3f7:	00 00 	addb	%al, (%rax)
     3f9:	00 00 	addb	%al, (%rax)
     3fb:	00 00 	addb	%al, (%rax)
     3fd:	00 00 	addb	%al, (%rax)
     3ff:	00 00 	addb	%al, (%rax)
     401:	00 00 	addb	%al, (%rax)
     403:	00 00 	addb	%al, (%rax)
     405:	00 00 	addb	%al, (%rax)
     407:	00 00 	addb	%al, (%rax)
     409:	01 00 	addl	%eax, (%rax)
     40b:	00 12 	addb	%dl, (%rdx)
     40d:	00 0d 00 80 06 00 	addb	%cl, 425984(%rip)
     413:	00 00 	addb	%al, (%rax)
     415:	00 00 	addb	%al, (%rax)
     417:	00 02 	addb	%al, (%rdx)
     419:	00 00 	addb	%al, (%rax)
     41b:	00 00 	addb	%al, (%rax)
     41d:	00 00 	addb	%al, (%rax)
     41f:	00 10 	addb	%dl, (%rax)
     421:	01 00 	addl	%eax, (%rax)
     423:	00 20 	addb	%ah, (%rax)
     425:	00 00 	addb	%al, (%rax)
     427:	00 00 	addb	%al, (%rax)
     429:	00 00 	addb	%al, (%rax)
     42b:	00 00 	addb	%al, (%rax)
     42d:	00 00 	addb	%al, (%rax)
     42f:	00 00 	addb	%al, (%rax)
     431:	00 00 	addb	%al, (%rax)
     433:	00 00 	addb	%al, (%rax)
     435:	00 00 	addb	%al, (%rax)
     437:	00 54 01 00 	addb	%dl, (%rcx,%rax)
     43b:	00 20 	addb	%ah, (%rax)
     43d:	00 16 	addb	%dl, (%rsi)
     43f:	00 00 	addb	%al, (%rax)
     441:	10 20 	adcb	%ah, (%rax)
     443:	00 00 	addb	%al, (%rax)
     445:	00 00 	addb	%al, (%rax)
     447:	00 00 	addb	%al, (%rax)
     449:	00 00 	addb	%al, (%rax)
     44b:	00 00 	addb	%al, (%rax)
     44d:	00 00 	addb	%al, (%rax)
     44f:	00 2c 01 	addb	%ch, (%rcx,%rax)
     452:	00 00 	addb	%al, (%rax)
     454:	10 00 	adcb	%al, (%rax)
     456:	16  <unknown>
     457:	00 10 	addb	%dl, (%rax)
     459:	10 20 	adcb	%ah, (%rax)
     45b:	00 00 	addb	%al, (%rax)
     45d:	00 00 	addb	%al, (%rax)
     45f:	00 00 	addb	%al, (%rax)
     461:	00 00 	addb	%al, (%rax)
     463:	00 00 	addb	%al, (%rax)
     465:	00 00 	addb	%al, (%rax)
     467:	00 0a 	addb	%cl, (%rdx)
     469:	01 00 	addl	%eax, (%rax)
     46b:	00 12 	addb	%dl, (%rdx)
     46d:	00 0e 	addb	%cl, (%rsi)
     46f:	00 84 06 00 00 00 00 	addb	%al, (%rsi,%rax)
     476:	00 00 	addb	%al, (%rax)
     478:	00 00 	addb	%al, (%rax)
     47a:	00 00 	addb	%al, (%rax)
     47c:	00 00 	addb	%al, (%rax)
     47e:	00 00 	addb	%al, (%rax)
     480:	33 01 	xorl	(%rcx), %eax
     482:	00 00 	addb	%al, (%rax)
     484:	12 00 	adcb	(%rax), %al
     486:	00 00 	addb	%al, (%rax)
     488:	00 00 	addb	%al, (%rax)
     48a:	00 00 	addb	%al, (%rax)
     48c:	00 00 	addb	%al, (%rax)
     48e:	00 00 	addb	%al, (%rax)
     490:	00 00 	addb	%al, (%rax)
     492:	00 00 	addb	%al, (%rax)
     494:	00 00 	addb	%al, (%rax)
     496:	00 00 	addb	%al, (%rax)
     498:	52 	pushq	%rdx
     499:	01 00 	addl	%eax, (%rax)
     49b:	00 10 	addb	%dl, (%rax)
     49d:	00 16 	addb	%dl, (%rsi)
     49f:	00 00 	addb	%al, (%rax)
     4a1:	10 20 	adcb	%ah, (%rax)
     4a3:	00 00 	addb	%al, (%rax)
     4a5:	00 00 	addb	%al, (%rax)
     4a7:	00 00 	addb	%al, (%rax)
     4a9:	00 00 	addb	%al, (%rax)
     4ab:	00 00 	addb	%al, (%rax)
     4ad:	00 00 	addb	%al, (%rax)
     4af:	00 5f 01 	addb	%bl, 1(%rdi)
     4b2:	00 00 	addb	%al, (%rax)
     4b4:	20 00 	andb	%al, (%rax)
     4b6:	00 00 	addb	%al, (%rax)
     4b8:	00 00 	addb	%al, (%rax)
     4ba:	00 00 	addb	%al, (%rax)
     4bc:	00 00 	addb	%al, (%rax)
     4be:	00 00 	addb	%al, (%rax)
     4c0:	00 00 	addb	%al, (%rax)
     4c2:	00 00 	addb	%al, (%rax)
     4c4:	00 00 	addb	%al, (%rax)
     4c6:	00 00 	addb	%al, (%rax)
     4c8:	6e 	outsb	(%rsi), %dx
     4c9:	01 00 	addl	%eax, (%rax)
     4cb:	00 11 	addb	%dl, (%rcx)
     4cd:	02 16 	addb	(%rsi), %dl
     4cf:	00 08 	addb	%cl, (%rax)
     4d1:	10 20 	adcb	%ah, (%rax)
     4d3:	00 00 	addb	%al, (%rax)
     4d5:	00 00 	addb	%al, (%rax)
     4d7:	00 00 	addb	%al, (%rax)
     4d9:	00 00 	addb	%al, (%rax)
     4db:	00 00 	addb	%al, (%rax)
     4dd:	00 00 	addb	%al, (%rax)
     4df:	00 7b 01 	addb	%bh, 1(%rbx)
     4e2:	00 00 	addb	%al, (%rax)
     4e4:	11 00 	adcl	%eax, (%rax)
     4e6:	0f 00 90 06 00 00 00 	lldtw	6(%rax)
     4ed:	00 00 	addb	%al, (%rax)
     4ef:	00 04 00 	addb	%al, (%rax,%rax)
     4f2:	00 00 	addb	%al, (%rax)
     4f4:	00 00 	addb	%al, (%rax)
     4f6:	00 00 	addb	%al, (%rax)
     4f8:	8a 01 	movb	(%rcx), %al
     4fa:	00 00 	addb	%al, (%rax)
     4fc:	12 00 	adcb	(%rax), %al
     4fe:	0d 00 10 06 00 	orl	$397312, %eax
     503:	00 00 	addb	%al, (%rax)
     505:	00 00 	addb	%al, (%rax)
     507:	00 65 00 	addb	%ah, (%rbp)
     50a:	00 00 	addb	%al, (%rax)
     50c:	00 00 	addb	%al, (%rax)
     50e:	00 00 	addb	%al, (%rax)
     510:	b6 00 	movb	$0, %dh
     512:	00 00 	addb	%al, (%rax)
     514:	10 00 	adcb	%al, (%rax)
     516:	17  <unknown>
     517:	00 18 	addb	%bl, (%rax)
     519:	10 20 	adcb	%ah, (%rax)
     51b:	00 00 	addb	%al, (%rax)
     51d:	00 00 	addb	%al, (%rax)
     51f:	00 00 	addb	%al, (%rax)
     521:	00 00 	addb	%al, (%rax)
     523:	00 00 	addb	%al, (%rax)
     525:	00 00 	addb	%al, (%rax)
     527:	00 58 01 	addb	%bl, 1(%rax)
     52a:	00 00 	addb	%al, (%rax)
     52c:	12 00 	adcb	(%rax), %al
     52e:	0d 00 f0 04 00 	orl	$323584, %eax
     533:	00 00 	addb	%al, (%rax)
     535:	00 00 	addb	%al, (%rax)
     537:	00 2b 	addb	%ch, (%rbx)
     539:	00 00 	addb	%al, (%rax)
     53b:	00 00 	addb	%al, (%rax)
     53d:	00 00 	addb	%al, (%rax)
     53f:	00 9a 01 00 00 10 	addb	%bl, 268435457(%rdx)
     545:	00 17 	addb	%dl, (%rdi)
     547:	00 10 	addb	%dl, (%rax)
     549:	10 20 	adcb	%ah, (%rax)
     54b:	00 00 	addb	%al, (%rax)
     54d:	00 00 	addb	%al, (%rax)
     54f:	00 00 	addb	%al, (%rax)
     551:	00 00 	addb	%al, (%rax)
     553:	00 00 	addb	%al, (%rax)
     555:	00 00 	addb	%al, (%rax)
     557:	00 a6 01 00 00 12 	addb	%ah, 301989889(%rsi)
     55d:	00 0d 00 fa 05 00 	addb	%cl, 391680(%rip)
     563:	00 00 	addb	%al, (%rax)
     565:	00 00 	addb	%al, (%rax)
     567:	00 0b 	addb	%cl, (%rbx)
     569:	00 00 	addb	%al, (%rax)
     56b:	00 00 	addb	%al, (%rax)
     56d:	00 00 	addb	%al, (%rax)
     56f:	00 ab 01 00 00 11 	addb	%ch, 285212673(%rbx)
     575:	02 16 	addb	(%rsi), %dl
     577:	00 10 	addb	%dl, (%rax)
     579:	10 20 	adcb	%ah, (%rax)
     57b:	00 00 	addb	%al, (%rax)
     57d:	00 00 	addb	%al, (%rax)
     57f:	00 00 	addb	%al, (%rax)
     581:	00 00 	addb	%al, (%rax)
     583:	00 00 	addb	%al, (%rax)
     585:	00 00 	addb	%al, (%rax)
     587:	00 b7 01 00 00 20 	addb	%dh, 536870913(%rdi)
     58d:	00 00 	addb	%al, (%rax)
     58f:	00 00 	addb	%al, (%rax)
     591:	00 00 	addb	%al, (%rax)
     593:	00 00 	addb	%al, (%rax)
     595:	00 00 	addb	%al, (%rax)
     597:	00 00 	addb	%al, (%rax)
     599:	00 00 	addb	%al, (%rax)
     59b:	00 00 	addb	%al, (%rax)
     59d:	00 00 	addb	%al, (%rax)
     59f:	00 d1 	addb	%dl, %cl
     5a1:	01 00 	addl	%eax, (%rax)
     5a3:	00 22 	addb	%ah, (%rdx)
     5a5:	00 00 	addb	%al, (%rax)
     5a7:	00 00 	addb	%al, (%rax)
     5a9:	00 00 	addb	%al, (%rax)
     5ab:	00 00 	addb	%al, (%rax)
     5ad:	00 00 	addb	%al, (%rax)
     5af:	00 00 	addb	%al, (%rax)
     5b1:	00 00 	addb	%al, (%rax)
     5b3:	00 00 	addb	%al, (%rax)
     5b5:	00 00 	addb	%al, (%rax)
     5b7:	00 94 01 00 00 12 00 	addb	%dl, 1179648(%rcx,%rax)
     5be:	0a 00 	orb	(%rax), %al
     5c0:	b8 04 00 00 00 	movl	$4, %eax
     5c5:	00 00 	addb	%al, (%rax)
     5c7:	00 00 	addb	%al, (%rax)
     5c9:	00 00 	addb	%al, (%rax)
     5cb:	00 00 	addb	%al, (%rax)
     5cd:	00 00 	addb	%al, (%rax)
     5cf:	00  <unknown>
Disassembly of section .strtab:
.strtab:
       0:	00 63 72 	addb	%ah, 114(%rbx)
       3:	74 73 	je	115 <.strtab+0x78>
       5:	74 75 	je	117 <.strtab+0x7c>
       7:	66 66 2e 63 00 	movslq	%cs:(%rax), %ax
       c:	64 65 72 65 	jb	101 <.strtab+0x75>
      10:	67 69 73 74 65 72 5f 74 	imull	$1952412261, 116(%ebx), %esi
      18:	6d 	insl	%dx, %es:(%rdi)
      19:	5f 	popq	%rdi
      1a:	63 6c 6f 6e 	movslq	110(%rdi,%rbp,2), %ebp
      1e:	65 73 00 	jae	0 <.strtab+0x21>
      21:	5f 	popq	%rdi
      22:	5f 	popq	%rdi
      23:	64 6f 	outsl	%fs:(%rsi), %dx
      25:	5f 	popq	%rdi
      26:	67 6c 	insb	%dx, %es:(%edi)
      28:	6f 	outsl	(%rsi), %dx
      29:	62 61 6c 5f 64  <unknown>
      2e:	74 6f 	je	111 <.strtab+0x9f>
      30:	72 73 	jb	115 <.strtab+0xa5>
      32:	5f 	popq	%rdi
      33:	61  <unknown>
      34:	75 78 	jne	120 <.strtab+0xae>
      36:	00 63 6f 	addb	%ah, 111(%rbx)
      39:	6d 	insl	%dx, %es:(%rdi)
      3a:	70 6c 	jo	108 <.strtab+0xa8>
      3c:	65 74 65 	je	101 <.strtab+0xa4>
      3f:	64 2e 37  <unknown>
      42:	36 39 36 	cmpl	%esi, %ss:(%rsi)
      45:	00 5f 5f 	addb	%bl, 95(%rdi)
      48:	64 6f 	outsl	%fs:(%rsi), %dx
      4a:	5f 	popq	%rdi
      4b:	67 6c 	insb	%dx, %es:(%edi)
      4d:	6f 	outsl	(%rsi), %dx
      4e:	62 61 6c 5f 64  <unknown>
      53:	74 6f 	je	111 <.strtab+0xc4>
      55:	72 73 	jb	115 <.strtab+0xca>
      57:	5f 	popq	%rdi
      58:	61  <unknown>
      59:	75 78 	jne	120 <.strtab+0xd3>
      5b:	5f 	popq	%rdi
      5c:	66 69 6e 69 5f 61 	imulw	$24927, 105(%rsi), %bp
      62:	72 72 	jb	114 <.strtab+0xd6>
      64:	61  <unknown>
      65:	79 5f 	jns	95 <.strtab+0xc6>
      67:	65 6e 	outsb	%gs:(%rsi), %dx
      69:	74 72 	je	114 <.strtab+0xdd>
      6b:	79 00 	jns	0 <.strtab+0x6d>
      6d:	66 72 61 	jb	97 <.strtab+0xd1>
      70:	6d 	insl	%dx, %es:(%rdi)
      71:	65 5f 	popq	%rdi
      73:	64 75 6d 	jne	109 <.strtab+0xe3>
      76:	6d 	insl	%dx, %es:(%rdi)
      77:	79 00 	jns	0 <.strtab+0x79>
      79:	5f 	popq	%rdi
      7a:	5f 	popq	%rdi
      7b:	66 72 61 	jb	97 <.strtab+0xdf>
      7e:	6d 	insl	%dx, %es:(%rdi)
      7f:	65 5f 	popq	%rdi
      81:	64 75 6d 	jne	109 <.strtab+0xf1>
      84:	6d 	insl	%dx, %es:(%rdi)
      85:	79 5f 	jns	95 <.strtab+0xe6>
      87:	69 6e 69 74 5f 61 72 	imull	$1918984052, 105(%rsi), %ebp
      8e:	72 61 	jb	97 <.strtab+0xf1>
      90:	79 5f 	jns	95 <.strtab+0xf1>
      92:	65 6e 	outsb	%gs:(%rsi), %dx
      94:	74 72 	je	114 <.strtab+0x108>
      96:	79 00 	jns	0 <.strtab+0x98>
      98:	78 2e 	js	46 <.strtab+0xc8>
      9a:	63 00 	movslq	(%rax), %eax
      9c:	5f 	popq	%rdi
      9d:	5f 	popq	%rdi
      9e:	46 52 	pushq	%rdx
      a0:	41 4d  <unknown>
      a2:	45 5f 	popq	%r15
      a4:	45 4e  <unknown>
      a6:	44 5f 	popq	%rdi
      a8:	5f 	popq	%rdi
      a9:	00 5f 5f 	addb	%bl, 95(%rdi)
      ac:	69 6e 69 74 5f 61 72 	imull	$1918984052, 105(%rsi), %ebp
      b3:	72 61 	jb	97 <.strtab+0x116>
      b5:	79 5f 	jns	95 <.strtab+0x116>
      b7:	65 6e 	outsb	%gs:(%rsi), %dx
      b9:	64 00 5f 44 	addb	%bl, %fs:68(%rdi)
      bd:	59 	popq	%rcx
      be:	4e 41  <unknown>
      c0:	4d 49  <unknown>
      c2:	43 00 5f 5f 	addb	%bl, 95(%r15)
      c6:	69 6e 69 74 5f 61 72 	imull	$1918984052, 105(%rsi), %ebp
      cd:	72 61 	jb	97 <.strtab+0x130>
      cf:	79 5f 	jns	95 <.strtab+0x130>
      d1:	73 74 	jae	116 <.strtab+0x147>
      d3:	61  <unknown>
      d4:	72 74 	jb	116 <.strtab+0x14a>
      d6:	00 5f 5f 	addb	%bl, 95(%rdi)
      d9:	47 4e  <unknown>
      db:	55 	pushq	%rbp
      dc:	5f 	popq	%rdi
      dd:	45 48 	rex64
      df:	5f 	popq	%rdi
      e0:	46 52 	pushq	%rdx
      e2:	41 4d  <unknown>
      e4:	45 5f 	popq	%r15
      e6:	48 44  <unknown>
      e8:	52 	pushq	%rdx
      e9:	00 5f 47 	addb	%bl, 71(%rdi)
      ec:	4c 4f  <unknown>
      ee:	42 41  <unknown>
      f0:	4c 5f 	popq	%rdi
      f2:	4f 46  <unknown>
      f4:	46 53 	pushq	%rbx
      f6:	45 54 	pushq	%r12
      f8:	5f 	popq	%rdi
      f9:	54 	pushq	%rsp
      fa:	41 42  <unknown>
      fc:	4c 45  <unknown>
      fe:	5f 	popq	%rdi
      ff:	00 5f 5f 	addb	%bl, 95(%rdi)
     102:	6c 	insb	%dx, %es:(%rdi)
     103:	69 62 63 5f 63 73 75 	imull	$1970496351, 99(%rdx), %esp
     10a:	5f 	popq	%rdi
     10b:	66 69 6e 69 00 5f 	imulw	$24320, 105(%rsi), %bp
     111:	49 54 	pushq	%r12
     113:	4d 5f 	popq	%r15
     115:	64 65 72 65 	jb	101 <.strtab+0x17e>
     119:	67 69 73 74 65 72 54 4d 	imull	$1297379941, 116(%ebx), %esi
     121:	43 6c 	insb	%dx, %es:(%rdi)
     123:	6f 	outsl	(%rsi), %dx
     124:	6e 	outsb	(%rsi), %dx
     125:	65 54 	pushq	%rsp
     127:	61  <unknown>
     128:	62  <unknown>
     129:	6c 	insb	%dx, %es:(%rdi)
     12a:	65 00 5f 65 	addb	%bl, %gs:101(%rdi)
     12e:	64 61  <unknown>
     130:	74 61 	je	97 <.strtab+0x193>
     132:	00 5f 5f 	addb	%bl, 95(%rdi)
     135:	6c 	insb	%dx, %es:(%rdi)
     136:	69 62 63 5f 73 74 61 	imull	$1635021663, 99(%rdx), %esp
     13d:	72 74 	jb	116 <.strtab+0x1b3>
     13f:	5f 	popq	%rdi
     140:	6d 	insl	%dx, %es:(%rdi)
     141:	61  <unknown>
     142:	69 6e 40 40 47 4c 49 	imull	$1229735744, 64(%rsi), %ebp
     149:	42 43  <unknown>
     14b:	5f 	popq	%rdi
     14c:	32 2e 	xorb	(%rsi), %ch
     14e:	32 2e 	xorb	(%rsi), %ch
     150:	35 00 5f 5f 64 	xorl	$1683971840, %eax
     155:	61  <unknown>
     156:	74 61 	je	97 <.strtab+0x1b9>
     158:	5f 	popq	%rdi
     159:	73 74 	jae	116 <.strtab+0x1cf>
     15b:	61  <unknown>
     15c:	72 74 	jb	116 <.strtab+0x1d2>
     15e:	00 5f 5f 	addb	%bl, 95(%rdi)
     161:	67 6d 	insl	%dx, %es:(%edi)
     163:	6f 	outsl	(%rsi), %dx
     164:	6e 	outsb	(%rsi), %dx
     165:	5f 	popq	%rdi
     166:	73 74 	jae	116 <.strtab+0x1dc>
     168:	61  <unknown>
     169:	72 74 	jb	116 <.strtab+0x1df>
     16b:	5f 	popq	%rdi
     16c:	5f 	popq	%rdi
     16d:	00 5f 5f 	addb	%bl, 95(%rdi)
     170:	64 73 6f 	jae	111 <.strtab+0x1e2>
     173:	5f 	popq	%rdi
     174:	68 61 6e 64 6c 	pushq	$1818521185
     179:	65 00 5f 49 	addb	%bl, %gs:73(%rdi)
     17d:	4f 5f 	popq	%r15
     17f:	73 74 	jae	116 <.strtab+0x1f5>
     181:	64 69 6e 5f 75 73 65 64 	imull	$1684370293, %fs:95(%rsi), %ebp
     189:	00 5f 5f 	addb	%bl, 95(%rdi)
     18c:	6c 	insb	%dx, %es:(%rdi)
     18d:	69 62 63 5f 63 73 75 	imull	$1970496351, 99(%rdx), %esp
     194:	5f 	popq	%rdi
     195:	69 6e 69 74 00 5f 5f 	imull	$1600061556, 105(%rsi), %ebp
     19c:	62  <unknown>
     19d:	73 73 	jae	115 <.strtab+0x212>
     19f:	5f 	popq	%rdi
     1a0:	73 74 	jae	116 <.strtab+0x216>
     1a2:	61  <unknown>
     1a3:	72 74 	jb	116 <.strtab+0x219>
     1a5:	00 6d 61 	addb	%ch, 97(%rbp)
     1a8:	69 6e 00 5f 5f 54 4d 	imull	$1297375071, (%rsi), %ebp
     1af:	43 5f 	popq	%r15
     1b1:	45 4e  <unknown>
     1b3:	44 5f 	popq	%rdi
     1b5:	5f 	popq	%rdi
     1b6:	00 5f 49 	addb	%bl, 73(%rdi)
     1b9:	54 	pushq	%rsp
     1ba:	4d 5f 	popq	%r15
     1bc:	72 65 	jb	101 <.strtab+0x223>
     1be:	67 69 73 74 65 72 54 4d 	imull	$1297379941, 116(%ebx), %esi
     1c6:	43 6c 	insb	%dx, %es:(%rdi)
     1c8:	6f 	outsl	(%rsi), %dx
     1c9:	6e 	outsb	(%rsi), %dx
     1ca:	65 54 	pushq	%rsp
     1cc:	61  <unknown>
     1cd:	62  <unknown>
     1ce:	6c 	insb	%dx, %es:(%rdi)
     1cf:	65 00 5f 5f 	addb	%bl, %gs:95(%rdi)
     1d3:	63 78 61 	movslq	97(%rax), %edi
     1d6:	5f 	popq	%rdi
     1d7:	66 69 6e 61 6c 69 	imulw	$26988, 97(%rsi), %bp
     1dd:	7a 65 	jp	101 <.interp+0xc>
     1df:	40 40  <unknown>
     1e1:	47 4c  <unknown>
     1e3:	49 42  <unknown>
     1e5:	43 5f 	popq	%r15
     1e7:	32 2e 	xorb	(%rsi), %ch
     1e9:	32 2e 	xorb	(%rsi), %ch
     1eb:	35  <unknown>
     1ec:	00  <unknown>
Disassembly of section .shstrtab:
.shstrtab:
       0:	00 2e 	addb	%ch, (%rsi)
       2:	73 79 	jae	121 <.strtab+0x7d>
       4:	6d 	insl	%dx, %es:(%rdi)
       5:	74 61 	je	97 <.strtab+0x68>
       7:	62 00 2e 73  <unknown>
       b:	74 72 	je	114 <.strtab+0x7f>
       d:	74 61 	je	97 <.strtab+0x70>
       f:	62 00 2e 73  <unknown>
      13:	68 73 74 72 74 	pushq	$1953657971
      18:	61  <unknown>
      19:	62 00 2e 69  <unknown>
      1d:	6e 	outsb	(%rsi), %dx
      1e:	74 65 	je	101 <.strtab+0x85>
      20:	72 70 	jb	112 <.strtab+0x92>
      22:	00 2e 	addb	%ch, (%rsi)
      24:	6e 	outsb	(%rsi), %dx
      25:	6f 	outsl	(%rsi), %dx
      26:	74 65 	je	101 <.strtab+0x8d>
      28:	2e 41 42  <unknown>
      2b:	49 2d 74 61 67 00 	subq	$6775156, %rax
      31:	2e 6e 	outsb	%cs:(%rsi), %dx
      33:	6f 	outsl	(%rsi), %dx
      34:	74 65 	je	101 <.strtab+0x9b>
      36:	2e 67 6e 	outsb	%cs:(%esi), %dx
      39:	75 2e 	jne	46 <.strtab+0x69>
      3b:	62  <unknown>
      3c:	75 69 	jne	105 <.strtab+0xa7>
      3e:	6c 	insb	%dx, %es:(%rdi)
      3f:	64 2d 69 64 00 2e 	subl	$771777641, %eax
      45:	67 6e 	outsb	(%esi), %dx
      47:	75 2e 	jne	46 <.strtab+0x77>
      49:	68 61 73 68 00 	pushq	$6845281
      4e:	2e 64 79 6e 	jns	110 <.strtab+0xc0>
      52:	73 79 	jae	121 <.strtab+0xcd>
      54:	6d 	insl	%dx, %es:(%rdi)
      55:	00 2e 	addb	%ch, (%rsi)
      57:	64 79 6e 	jns	110 <.strtab+0xc8>
      5a:	73 74 	jae	116 <.strtab+0xd0>
      5c:	72 00 	jb	0 <.strtab+0x5e>
      5e:	2e 67 6e 	outsb	%cs:(%esi), %dx
      61:	75 2e 	jne	46 <.strtab+0x91>
      63:	76 65 	jbe	101 <.strtab+0xca>
      65:	72 73 	jb	115 <.strtab+0xda>
      67:	69 6f 6e 00 2e 67 6e 	imull	$1852255744, 110(%rdi), %ebp
      6e:	75 2e 	jne	46 <.strtab+0x9e>
      70:	76 65 	jbe	101 <.strtab+0xd7>
      72:	72 73 	jb	115 <.strtab+0xe7>
      74:	69 6f 6e 5f 72 00 2e 	imull	$771781215, 110(%rdi), %ebp
      7b:	72 65 	jb	101 <.strtab+0xe2>
      7d:	6c 	insb	%dx, %es:(%rdi)
      7e:	61  <unknown>
      7f:	2e 64 79 6e 	jns	110 <.strtab+0xf1>
      83:	00 2e 	addb	%ch, (%rsi)
      85:	69 6e 69 74 00 2e 70 	imull	$1882062964, 105(%rsi), %ebp
      8c:	6c 	insb	%dx, %es:(%rdi)
      8d:	74 00 	je	0 <.strtab+0x8f>
      8f:	2e 70 6c 	jo	108 <.strtab+0xfe>
      92:	74 2e 	je	46 <.strtab+0xc2>
      94:	67 6f 	outsl	(%esi), %dx
      96:	74 00 	je	0 <.strtab+0x98>
      98:	2e 74 65 	je	101 <.strtab+0x100>
      9b:	78 74 	js	116 <.strtab+0x111>
      9d:	00 2e 	addb	%ch, (%rsi)
      9f:	66 69 6e 69 00 2e 	imulw	$11776, 105(%rsi), %bp
      a5:	72 6f 	jb	111 <.strtab+0x116>
      a7:	64 61  <unknown>
      a9:	74 61 	je	97 <.strtab+0x10c>
      ab:	00 2e 	addb	%ch, (%rsi)
      ad:	65 68 5f 66 72 61 	pushq	$1634887263
      b3:	6d 	insl	%dx, %es:(%rdi)
      b4:	65 5f 	popq	%rdi
      b6:	68 64 72 00 2e 	pushq	$771781220
      bb:	65 68 5f 66 72 61 	pushq	$1634887263
      c1:	6d 	insl	%dx, %es:(%rdi)
      c2:	65 00 2e 	addb	%ch, %gs:(%rsi)
      c5:	69 6e 69 74 5f 61 72 	imull	$1918984052, 105(%rsi), %ebp
      cc:	72 61 	jb	97 <.strtab+0x12f>
      ce:	79 00 	jns	0 <.strtab+0xd0>
      d0:	2e 66 69 6e 69 5f 61 	imulw	$24927, %cs:105(%rsi), %bp
      d7:	72 72 	jb	114 <.strtab+0x14b>
      d9:	61  <unknown>
      da:	79 00 	jns	0 <.strtab+0xdc>
      dc:	2e 64 79 6e 	jns	110 <.strtab+0x14e>
      e0:	61  <unknown>
      e1:	6d 	insl	%dx, %es:(%rdi)
      e2:	69 63 00 2e 64 61 74 	imull	$1952539694, (%rbx), %esp
      e9:	61  <unknown>
      ea:	00 2e 	addb	%ch, (%rsi)
      ec:	62  <unknown>
      ed:	73 73 	jae	115 <.strtab+0x162>
      ef:	00 2e 	addb	%ch, (%rsi)
      f1:	63 6f 6d 	movslq	109(%rdi), %ebp
      f4:	6d 	insl	%dx, %es:(%rdi)
      f5:	65 6e 	outsb	%gs:(%rsi), %dx
      f7:	74 00 	je	0 <.strtab+0xf9>
      f9:	2e 66 6c 	insb	%dx, %es:(%rdi)
      fc:	61  <unknown>
      fd:	67 00  <unknown>
